
Optional file libmchp_peripheral.a not found

Optional file libmchp_peripheral_32MZ2048ECM100.a not found
Archive member included because of file (symbol)

c:/program files (x86)/microchip/xc32/v1.40/bin/bin/../../lib/gcc/pic32mx/4.8.3\libgcc.a(_udivdi3.o)
                              build/boostv1/production/_ext/1264926591/sys_tmr.o (__udivdi3)
c:/program files (x86)/microchip/xc32/v1.40/bin/bin/../../lib/gcc/pic32mx/4.8.3\libgcc.a(floatunsisf.o)
                              build/boostv1/production/_ext/2140773153/drv_i2c_static.o (__floatunsisf)
c:/program files (x86)/microchip/xc32/v1.40/bin/bin/../../lib/gcc/pic32mx/4.8.3/../../../../pic32mx/lib\libpic32.a(memset.o)
                              build/boostv1/production/_ext/185269848/drv_tmr.o (memset)
c:/program files (x86)/microchip/xc32/v1.40/bin/bin/../../lib/gcc/pic32mx/4.8.3/../../../../pic32mx/lib\libpic32.a(default-bootstrap-exception-handler.o)
                              c:/program files (x86)/microchip/xc32/v1.40/bin/bin/../../lib/gcc/pic32mx/4.8.3/../../../../pic32mx/lib/./proc/32MZ2048ECM100/crt0_mips32r2.o (_bootstrap_exception_handler)
c:/program files (x86)/microchip/xc32/v1.40/bin/bin/../../lib/gcc/pic32mx/4.8.3/../../../../pic32mx/lib\libpic32.a(default-on-reset.o)
                              c:/program files (x86)/microchip/xc32/v1.40/bin/bin/../../lib/gcc/pic32mx/4.8.3/../../../../pic32mx/lib/./proc/32MZ2048ECM100/crt0_mips32r2.o (_on_reset)
c:/program files (x86)/microchip/xc32/v1.40/bin/bin/../../lib/gcc/pic32mx/4.8.3/../../../../pic32mx/lib\libpic32.a(default-on-bootstrap.o)
                              c:/program files (x86)/microchip/xc32/v1.40/bin/bin/../../lib/gcc/pic32mx/4.8.3/../../../../pic32mx/lib/./proc/32MZ2048ECM100/crt0_mips32r2.o (_on_bootstrap)
c:/program files (x86)/microchip/xc32/v1.40/bin/bin/../../lib/gcc/pic32mx/4.8.3/../../../../pic32mx/lib\libpic32.a(default-nmi-handler.o)
                              c:/program files (x86)/microchip/xc32/v1.40/bin/bin/../../lib/gcc/pic32mx/4.8.3/../../../../pic32mx/lib/./proc/32MZ2048ECM100/crt0_mips32r2.o (_nmi_handler)
c:/program files (x86)/microchip/xc32/v1.40/bin/bin/../../lib/gcc/pic32mx/4.8.3/../../../../pic32mx/lib\libpic32.a(pic32_init_cache.o)
                              c:/program files (x86)/microchip/xc32/v1.40/bin/bin/../../lib/gcc/pic32mx/4.8.3/../../../../pic32mx/lib/./proc/32MZ2048ECM100/crt0_mips32r2.o (__pic32_init_cache)
c:/program files (x86)/microchip/xc32/v1.40/bin/bin/../../lib/gcc/pic32mx/4.8.3/../../../../pic32mx/lib\libpic32.a(pic32_init_tlb_ebi_sqi.o)
                              c:/program files (x86)/microchip/xc32/v1.40/bin/bin/../../lib/gcc/pic32mx/4.8.3/../../../../pic32mx/lib/./proc/32MZ2048ECM100/crt0_mips32r2.o (__pic32_tlb_init_ebi_sqi)
c:/program files (x86)/microchip/xc32/v1.40/bin/bin/../../lib/gcc/pic32mx/4.8.3/../../../../pic32mx/lib\libpic32.a(general-exception.o)
                              c:/program files (x86)/microchip/xc32/v1.40/bin/bin/../../lib/gcc/pic32mx/4.8.3/../../../../pic32mx/lib/./proc/32MZ2048ECM100/crt0_mips32r2.o (_general_exception_context)
c:/program files (x86)/microchip/xc32/v1.40/bin/bin/../../lib/gcc/pic32mx/4.8.3/../../../../pic32mx/lib\libpic32.a(cache-err-exception.o)
                              c:/program files (x86)/microchip/xc32/v1.40/bin/bin/../../lib/gcc/pic32mx/4.8.3/../../../../pic32mx/lib/./proc/32MZ2048ECM100/crt0_mips32r2.o (_cache_err_exception_context)
c:/program files (x86)/microchip/xc32/v1.40/bin/bin/../../lib/gcc/pic32mx/4.8.3/../../../../pic32mx/lib\libpic32.a(simple-tlb-refill-exception.o)
                              c:/program files (x86)/microchip/xc32/v1.40/bin/bin/../../lib/gcc/pic32mx/4.8.3/../../../../pic32mx/lib/./proc/32MZ2048ECM100/crt0_mips32r2.o (_simple_tlb_refill_exception_context)
c:/program files (x86)/microchip/xc32/v1.40/bin/bin/../../lib/gcc/pic32mx/4.8.3/../../../../pic32mx/lib\libpic32.a(defaultinterrupt.o)
                              c:/program files (x86)/microchip/xc32/v1.40/bin/bin/../../lib/gcc/pic32mx/4.8.3/../../../../pic32mx/lib/./proc/32MZ2048ECM100\default_isr_vectors.o (_DefaultInterrupt)
c:/program files (x86)/microchip/xc32/v1.40/bin/bin/../../lib/gcc/pic32mx/4.8.3/../../../../pic32mx/lib\libpic32.a(default-cache-err-exception-handler.o)
                              c:/program files (x86)/microchip/xc32/v1.40/bin/bin/../../lib/gcc/pic32mx/4.8.3/../../../../pic32mx/lib\libpic32.a(cache-err-exception.o) (_cache_err_exception_handler)
c:/program files (x86)/microchip/xc32/v1.40/bin/bin/../../lib/gcc/pic32mx/4.8.3/../../../../pic32mx/lib\libpic32.a(default-simple-tlb-refill-exception-handler.o)
                              c:/program files (x86)/microchip/xc32/v1.40/bin/bin/../../lib/gcc/pic32mx/4.8.3/../../../../pic32mx/lib\libpic32.a(simple-tlb-refill-exception.o) (_simple_tlb_refill_exception_handler)
c:/program files (x86)/microchip/xc32/v1.40/bin/bin/../../lib/gcc/pic32mx/4.8.3/../../../../pic32mx/lib\libm.a(fp32div.o)
                              build/boostv1/production/_ext/2140773153/drv_i2c_static.o (fpdiv)
c:/program files (x86)/microchip/xc32/v1.40/bin/bin/../../lib/gcc/pic32mx/4.8.3/../../../../pic32mx/lib\libm.a(fp32mul.o)
                              build/boostv1/production/_ext/2140773153/drv_i2c_static.o (fpmul)
c:/program files (x86)/microchip/xc32/v1.40/bin/bin/../../lib/gcc/pic32mx/4.8.3/../../../../pic32mx/lib\libm.a(fp32subadd.o)
                              build/boostv1/production/_ext/2140773153/drv_i2c_static.o (fpsub)
c:/program files (x86)/microchip/xc32/v1.40/bin/bin/../../lib/gcc/pic32mx/4.8.3/../../../../pic32mx/lib\libm.a(fptoul.o)
                              build/boostv1/production/_ext/2140773153/drv_i2c_static.o (fptoui)
c:/program files (x86)/microchip/xc32/v1.40/bin/bin/../../lib/gcc/pic32mx/4.8.3/../../../../pic32mx/lib\libm.a(sitofp.o)
                              c:/program files (x86)/microchip/xc32/v1.40/bin/bin/../../lib/gcc/pic32mx/4.8.3\libgcc.a(floatunsisf.o) (sitofp)

Allocating common symbols
Common symbol       size              file

_trC                0x4               build/boostv1/production/_ext/1945137225/drv_adc10bit.o
_trB                0x4               build/boostv1/production/_ext/1945137225/drv_adc10bit.o
_trA                0x4               build/boostv1/production/_ext/1945137225/drv_adc10bit.o
_trD                0x4               build/boostv1/production/_ext/1945137225/drv_adc10bit.o
appData             0x4               build/boostv1/production/_ext/1360937237/app.o
gfxDrv              0x4               build/boostv1/production/_ext/386020355/gfx_primitive.o
gSysTouchObj        0x18              build/boostv1/production/_ext/846513563/sys_touch.o
sysObj              0x20              build/boostv1/production/_ext/208863783/system_init.o
pDrvInstance        0x4               build/boostv1/production/_ext/1945137225/drv_adc10bit.o
gSysTouchClientObj  0x10              build/boostv1/production/_ext/846513563/sys_touch.o
gSysDMAChannelObj   0x80              build/boostv1/production/_ext/65930274/sys_dma.o
frameBufferAddress  0x4               build/boostv1/production/_ext/1390999610/drv_gfx_lcc_int_pe.o
GraphicsLine        0x780             build/boostv1/production/_ext/1390999610/drv_gfx_lcc_int_pe.o
activePageAddress   0x4               build/boostv1/production/_ext/1390999610/drv_gfx_lcc_int_pe.o
sysDevconObj        0x8               build/boostv1/production/_ext/1271179505/sys_devcon.o
gSysTouchCommonDataObj
                    0x1               build/boostv1/production/_ext/846513563/sys_touch.o
primitiveLayer      0x10              build/boostv1/production/_ext/386020355/gfx_primitive.o

Microchip PIC32 Memory-Usage Report

kseg0 Program-Memory Usage
section                    address  length [bytes]      (dec)  Description
-------                 ----------  -------------------------  -----------
.simple_tlb_refill_excp 0x9d000000           0x10          16   
.text.SYS_TOUCH_TouchMs 0x9d000010           0xe4         228   
.text.SYS_CLK_SystemFre 0x9d0000f4            0xc          12   
.cache_err_excpt        0x9d000100           0x10          16   
.text.SYS_TOUCH_Tasks   0x9d000110           0x6c         108   
.app_excpt              0x9d000180           0x10          16  General-Exception 
.text.DRV_GFX_LCC_Open  0x9d000190           0x68         104   
.text.APP_Initialize    0x9d0001f8            0x8           8   
.vectors                0x9d000200           0x58          88   
.dinit                  0x9d000258          0x4e0        1248   
.text._PositionTouchDet 0x9d000738          0x348         840   
.text.DRV_GFX_LCC_Initi 0x9d000a80          0x338         824   
.text._DRV_TMR_ClockSou 0x9d000db8          0x2ec         748   
.text.DRV_TMR_Initializ 0x9d0010a4          0x2bc         700   
.text.fpsubadd          0x9d001360          0x278         632   
.text.SYS_TMR_Tasks     0x9d0015d8          0x254         596   
.text.DRV_TMR_CounterFr 0x9d00182c          0x250         592   
.text._DRV_TMR_ClockPre 0x9d001a7c          0x248         584   
.text.DRV_GFX_LCC_Displ 0x9d001cc4          0x1fc         508   
.text.fp32mul           0x9d001ec0          0x1bc         444   
.text.SYS_DMA_ChannelSe 0x9d00207c          0x1b8         440   
.text.SYS_DMA_ChannelTr 0x9d002234          0x1b8         440   
.text._IntHandlerDrvTmr 0x9d0023ec          0x1a4         420   
.text._IntHandlerLCCRef 0x9d002590          0x19c         412   
.text.DRV_TMR_Alarm16Bi 0x9d00272c          0x190         400   
.text._DRV_TMR_Resume   0x9d0028bc          0x184         388   
.text.GFX_PRIMITIVE_Ope 0x9d002a40          0x17c         380   
.text._DRV_TMR_Suspend  0x9d002bbc          0x164         356   
.text.SYS_Initialize    0x9d002d20          0x154         340   
.text._SYS_TMR_AlarmCal 0x9d002e74          0x14c         332   
.text.SYS_DMA_Tasks     0x9d002fc0          0x138         312   
.text.TouchCalculateCal 0x9d0030f8          0x128         296   
.text.SYS_CLK_Initializ 0x9d003220          0x100         256   
.text.SYS_DEVCON_Perfor 0x9d003320           0xf4         244   
.rodata                 0x9d003414           0xdc         220  Read-only const 
.text.general_exception 0x9d0034f0           0xdc         220   
.text._cache_err_except 0x9d0035cc           0xd8         216   
.text.simple_tlb_refill 0x9d0036a4           0xd8         216   
.text.DRV_TOUCH_ADC10BI 0x9d00377c           0xd4         212   
.rodata                 0x9d003850           0xd0         208  Read-only const 
.text.DRV_TMR_Tasks_ISR 0x9d003920           0xc8         200   
.text.SYS_TMR_Initializ 0x9d0039e8           0xc8         200   
.text.SYS_PORTS_Initial 0x9d003ab0           0xc4         196   
.tlb.__pic32_tlb_init_e 0x9d003b74           0xbc         188   
.text.SYS_TOUCH_Open    0x9d003c30           0xa8         168   
.text                   0x9d003cd8           0xa8         168  App's exec code 
.text.DRV_I2C0_Initiali 0x9d003d80           0x9c         156   
.text.DRV_PMP0_ModeConf 0x9d003e1c           0x98         152   
.text.DRV_GFX_LCC_Pixel 0x9d003eb4           0x94         148   
.text.DRV_GFX_LCC_BarFi 0x9d003f48           0x8c         140   
.text.GFX_Initialize    0x9d003fd4           0x88         136   
.text.GFX_Open          0x9d00405c           0x88         136   
.text._DRV_TMR_ModuleOb 0x9d0040e4           0x84         132   
.text.SYS_DMA_Initializ 0x9d004168           0x7c         124   
.text.fptoul            0x9d0041e4           0x7c         124   
.text.DRV_TOUCH_ADC10BI 0x9d004260           0x68         104   
.text.SYS_Tasks         0x9d0042c8           0x64         100   
.text.DRV_GFX_LCC_Inter 0x9d00432c           0x64         100   
.text.DRV_TMR_AlarmDisa 0x9d004390           0x64         100   
.text.DRV_TMR_Start     0x9d0043f4           0x64         100   
.text.DRV_TMR_AlarmEnab 0x9d004458           0x60          96   
.text.sitofp            0x9d0044b8           0x60          96   
.text.DRV_GFX_LCC_Pixel 0x9d004518           0x5c          92   
.text.DRV_TMR_Open      0x9d004574           0x5c          92   
.text.DRV_TOUCH_ADC10BI 0x9d0045d0           0x5c          92   
.text.SYS_DMA_ChannelAl 0x9d00462c           0x5c          92   
.text.GFX_Tasks         0x9d004688           0x58          88   
.text.SYS_DEVCON_System 0x9d0046e0           0x58          88   
.text.SYS_TOUCH_Initial 0x9d004738           0x58          88   
.text.main_entry        0x9d004790           0x54          84   
.text.DRV_GFX_LCC_SetPa 0x9d0047e4           0x54          84   
.text.SYS_INT_SourceDis 0x9d004838           0x54          84   
.text                   0x9d00488c           0x4c          76  App's exec code 
.text.SYS_DEVCON_System 0x9d0048d8           0x48          72   
.text._bootstrap_except 0x9d004920           0x48          72   
.text._cache_err_except 0x9d004968           0x48          72   
.text._simple_tlb_refil 0x9d0049b0           0x48          72   
.text.GFX_PRIMITIVE_Ini 0x9d0049f8           0x44          68   
.text                   0x9d004a3c           0x44          68  App's exec code 
.text._general_exceptio 0x9d004a80           0x3c          60   
.text.DRV_GFX_LCC_Pixel 0x9d004abc           0x3c          60   
.text.SYS_DMA_ChannelEn 0x9d004af8           0x3c          60   
.text.SYS_DMA_ChannelFo 0x9d004b34           0x3c          60   
.text.DRV_TOUCH_ADC10BI 0x9d004b70           0x2c          44   
.text.DRV_TOUCH_ADC10BI 0x9d004b9c           0x2c          44   
.text.SYS_CLK_Periphera 0x9d004bc8           0x28          40   
.text.main              0x9d004bf0           0x20          32   
.text.DRV_PMP0_Initiali 0x9d004c10           0x1c          28   
.text.DRV_GFX_LCC_Frame 0x9d004c2c           0x1c          28   
.rodata                 0x9d004c48           0x1c          28  Read-only const 
.text.DRV_TOUCH_ADC10BI 0x9d004c64           0x1c          28   
.text.SYS_DMA_Suspend   0x9d004c80           0x18          24   
.text.SYS_DMA_Resume    0x9d004c98           0x18          24   
.text.SYS_INT_Initializ 0x9d004cb0           0x18          24   
.text                   0x9d004cc8           0x18          24  App's exec code 
.text.SYS_DEVCON_Initia 0x9d004ce0           0x14          20   
.rodata                 0x9d004cf4           0x10          16  Read-only const 
.text.DRV_GFX_LCC_SetCo 0x9d004d04           0x10          16   
.text.DRV_GFX_LCC_MaxXG 0x9d004d14            0xc          12   
.text.DRV_GFX_LCC_MaxYG 0x9d004d20            0xc          12   
.text.APP_Tasks         0x9d004d2c            0x8           8   
.text.DRV_TMR_Tasks     0x9d004d34            0x8           8   
.text.SYS_DEVCON_Tasks  0x9d004d3c            0x8           8   
.rodata                 0x9d004d44            0x8           8  Read-only const 
.text._on_reset         0x9d004d4c            0x8           8   
.text._on_bootstrap     0x9d004d54            0x8           8   
      Total kseg0_program_mem used  :      0x4d58       19800  0.9% of 0x200000

kseg0 Boot-Memory Usage
section                    address  length [bytes]      (dec)  Description
-------                 ----------  -------------------------  -----------
         Total kseg0_boot_mem used  :           0           0  

kseg1 Boot-Memory Usage
section                    address  length [bytes]      (dec)  Description
-------                 ----------  -------------------------  -----------
.reset                  0xbfc00000          0x1fc         508  Reset handler 
.bev_excpt              0xbfc00380           0x10          16  BEV-Exception 
         Total kseg1_boot_mem used  :       0x20c         524  45.5% of 0x480
        --------------------------------------------------------------------------
         Total Program Memory used  :      0x4f64       20324  1.0% of 0x200480
        --------------------------------------------------------------------------


kseg0 Data-Memory Usage
section                    address  length [bytes]      (dec)  Description
-------                 ----------  -------------------------  -----------
.sdata                  0x80000000           0x50          80  Small init data 
.sbss                   0x80000050          0x114         276  Small uninit data 
.bss                    0x80000164           0xc8         200  Uninitialized data 
.bss                    0x8003fe30          0x8b0        2224  Uninitialized data 
.data                   0x800406e0           0x4c          76  Initialized data 
.bss                    0x8004072c           0x78         120  Uninitialized data 
.data                   0x800407a4           0x28          40  Initialized data 
.bss                    0x800407cc           0x44          68  Uninitialized data 
.bss.frameBuffer        0x80000230        0x3fc00      261120   
         Total kseg0_data_mem used  :     0x4080c      264204  50.4% of 0x80000
        --------------------------------------------------------------------------
            Total Data Memory used  :     0x4080c      264204  50.4% of 0x80000
        --------------------------------------------------------------------------


Dynamic Data-Memory Reservation
section                    address  length [bytes]      (dec)  Description
-------                 ----------  -------------------------  -----------
heap                    0x80040818         0x1000        4096  Reserved for heap 
stack                   0x80041830        0x3e7c8      255944  Reserved for stack 

        --------------------------------------------------------------------------

Discarded input sections

 .text          0x00000000        0x0 c:/program files (x86)/microchip/xc32/v1.40/bin/bin/../../lib/gcc/pic32mx/4.8.3/../../../../pic32mx/lib/./proc/32MZ2048ECM100/crt0_mips32r2.o
 .data          0x00000000        0x0 c:/program files (x86)/microchip/xc32/v1.40/bin/bin/../../lib/gcc/pic32mx/4.8.3/../../../../pic32mx/lib/./proc/32MZ2048ECM100/crt0_mips32r2.o
 .bss           0x00000000        0x0 c:/program files (x86)/microchip/xc32/v1.40/bin/bin/../../lib/gcc/pic32mx/4.8.3/../../../../pic32mx/lib/./proc/32MZ2048ECM100/crt0_mips32r2.o
 .text          0x00000000        0x0 c:/program files (x86)/microchip/xc32/v1.40/bin/bin/../../lib/gcc/pic32mx/4.8.3/../../../../pic32mx/lib\debug-exception-return.o
 .data          0x00000000        0x0 c:/program files (x86)/microchip/xc32/v1.40/bin/bin/../../lib/gcc/pic32mx/4.8.3/../../../../pic32mx/lib\debug-exception-return.o
 .bss           0x00000000        0x0 c:/program files (x86)/microchip/xc32/v1.40/bin/bin/../../lib/gcc/pic32mx/4.8.3/../../../../pic32mx/lib\debug-exception-return.o
 .reginfo       0x00000000       0x18 c:/program files (x86)/microchip/xc32/v1.40/bin/bin/../../lib/gcc/pic32mx/4.8.3/../../../../pic32mx/lib\debug-exception-return.o
 .text          0x00000000        0x0 build/boostv1/production/_ext/2140773153/drv_i2c_static.o
 .data          0x00000000        0x0 build/boostv1/production/_ext/2140773153/drv_i2c_static.o
 .bss           0x00000000        0x0 build/boostv1/production/_ext/2140773153/drv_i2c_static.o
 .reginfo       0x00000000       0x18 build/boostv1/production/_ext/2140773153/drv_i2c_static.o
 .text.DRV_I2C0_DeInitialize
                0x00000000       0x18 build/boostv1/production/_ext/2140773153/drv_i2c_static.o
 .text.DRV_I2C0_SetUpByteRead
                0x00000000       0x40 build/boostv1/production/_ext/2140773153/drv_i2c_static.o
 .text.DRV_I2C0_WaitForReadByteAvailable
                0x00000000       0x10 build/boostv1/production/_ext/2140773153/drv_i2c_static.o
 .text.DRV_I2C0_ByteRead
                0x00000000       0x10 build/boostv1/production/_ext/2140773153/drv_i2c_static.o
 .text.DRV_I2C0_ByteWrite
                0x00000000       0x6c build/boostv1/production/_ext/2140773153/drv_i2c_static.o
 .text.DRV_I2C0_WaitForByteWriteToComplete
                0x00000000       0x30 build/boostv1/production/_ext/2140773153/drv_i2c_static.o
 .text.DRV_I2C0_WriteByteAcknowledged
                0x00000000       0x14 build/boostv1/production/_ext/2140773153/drv_i2c_static.o
 .text.DRV_I2C0_BaudRateSet
                0x00000000       0xcc build/boostv1/production/_ext/2140773153/drv_i2c_static.o
 .text.DRV_I2C0_MasterBusIdle
                0x00000000       0x2c build/boostv1/production/_ext/2140773153/drv_i2c_static.o
 .text.DRV_I2C0_MasterStart
                0x00000000       0x78 build/boostv1/production/_ext/2140773153/drv_i2c_static.o
 .text.DRV_I2C0_WaitForStartComplete
                0x00000000       0x1c build/boostv1/production/_ext/2140773153/drv_i2c_static.o
 .text.DRV_I2C0_MasterRestart
                0x00000000       0x64 build/boostv1/production/_ext/2140773153/drv_i2c_static.o
 .text.DRV_I2C0_MasterStop
                0x00000000      0x17c build/boostv1/production/_ext/2140773153/drv_i2c_static.o
 .text.DRV_I2C0_WaitForStopComplete
                0x00000000        0x8 build/boostv1/production/_ext/2140773153/drv_i2c_static.o
 .text.DRV_I2C0_MasterACKSend
                0x00000000       0x30 build/boostv1/production/_ext/2140773153/drv_i2c_static.o
 .text.DRV_I2C0_MasterNACKSend
                0x00000000       0x30 build/boostv1/production/_ext/2140773153/drv_i2c_static.o
 .text.DRV_I2C0_WaitForACKOrNACKComplete
                0x00000000       0x1c build/boostv1/production/_ext/2140773153/drv_i2c_static.o
 .text          0x00000000        0x0 build/boostv1/production/_ext/1464490010/drv_pmp_static.o
 .data          0x00000000        0x0 build/boostv1/production/_ext/1464490010/drv_pmp_static.o
 .bss           0x00000000        0x0 build/boostv1/production/_ext/1464490010/drv_pmp_static.o
 .reginfo       0x00000000       0x18 build/boostv1/production/_ext/1464490010/drv_pmp_static.o
 .text.DRV_PMP0_TimingSet
                0x00000000       0x5c build/boostv1/production/_ext/1464490010/drv_pmp_static.o
 .text.DRV_PMP0_Write
                0x00000000       0x28 build/boostv1/production/_ext/1464490010/drv_pmp_static.o
 .text.DRV_PMP0_Read
                0x00000000       0x28 build/boostv1/production/_ext/1464490010/drv_pmp_static.o
 .text          0x00000000        0x0 build/boostv1/production/_ext/1526535504/sys_clk_static.o
 .data          0x00000000        0x0 build/boostv1/production/_ext/1526535504/sys_clk_static.o
 .bss           0x00000000        0x0 build/boostv1/production/_ext/1526535504/sys_clk_static.o
 .reginfo       0x00000000       0x18 build/boostv1/production/_ext/1526535504/sys_clk_static.o
 .text.SYS_CLK_ReferenceClockFrequencyGet
                0x00000000        0x8 build/boostv1/production/_ext/1526535504/sys_clk_static.o
 .text          0x00000000        0x0 build/boostv1/production/_ext/385613664/sys_ports_static.o
 .data          0x00000000        0x0 build/boostv1/production/_ext/385613664/sys_ports_static.o
 .bss           0x00000000        0x0 build/boostv1/production/_ext/385613664/sys_ports_static.o
 .reginfo       0x00000000       0x18 build/boostv1/production/_ext/385613664/sys_ports_static.o
 .text          0x00000000        0x0 build/boostv1/production/_ext/208863783/system_init.o
 .bss           0x00000000        0x0 build/boostv1/production/_ext/208863783/system_init.o
 .reginfo       0x00000000       0x18 build/boostv1/production/_ext/208863783/system_init.o
 .text          0x00000000        0x0 build/boostv1/production/_ext/208863783/system_interrupt.o
 .data          0x00000000        0x0 build/boostv1/production/_ext/208863783/system_interrupt.o
 .bss           0x00000000        0x0 build/boostv1/production/_ext/208863783/system_interrupt.o
 .reginfo       0x00000000       0x18 build/boostv1/production/_ext/208863783/system_interrupt.o
 .text          0x00000000        0x0 build/boostv1/production/_ext/208863783/system_exceptions.o
 .bss           0x00000000        0x0 build/boostv1/production/_ext/208863783/system_exceptions.o
 .reginfo       0x00000000       0x18 build/boostv1/production/_ext/208863783/system_exceptions.o
 .text          0x00000000        0x0 build/boostv1/production/_ext/208863783/system_tasks.o
 .data          0x00000000        0x0 build/boostv1/production/_ext/208863783/system_tasks.o
 .bss           0x00000000        0x0 build/boostv1/production/_ext/208863783/system_tasks.o
 .reginfo       0x00000000       0x18 build/boostv1/production/_ext/208863783/system_tasks.o
 .text          0x00000000        0x0 build/boostv1/production/_ext/1360937237/app.o
 .data          0x00000000        0x0 build/boostv1/production/_ext/1360937237/app.o
 .bss           0x00000000        0x0 build/boostv1/production/_ext/1360937237/app.o
 .reginfo       0x00000000       0x18 build/boostv1/production/_ext/1360937237/app.o
 .text          0x00000000        0x0 build/boostv1/production/_ext/1360937237/main.o
 .data          0x00000000        0x0 build/boostv1/production/_ext/1360937237/main.o
 .bss           0x00000000        0x0 build/boostv1/production/_ext/1360937237/main.o
 .reginfo       0x00000000       0x18 build/boostv1/production/_ext/1360937237/main.o
 .text          0x00000000        0x0 build/boostv1/production/_ext/1360937237/delay.o
 .data          0x00000000        0x0 build/boostv1/production/_ext/1360937237/delay.o
 .bss           0x00000000        0x0 build/boostv1/production/_ext/1360937237/delay.o
 .reginfo       0x00000000       0x18 build/boostv1/production/_ext/1360937237/delay.o
 .text.delay_for_1000_nops_x
                0x00000000       0x2c build/boostv1/production/_ext/1360937237/delay.o
 .text.delay_for_1000_nops
                0x00000000       0x1c build/boostv1/production/_ext/1360937237/delay.o
 .text.delay_micros
                0x00000000       0xd4 build/boostv1/production/_ext/1360937237/delay.o
 .text.delay_millis
                0x00000000       0x3c build/boostv1/production/_ext/1360937237/delay.o
 .text.delay_seconds
                0x00000000       0x3c build/boostv1/production/_ext/1360937237/delay.o
 .text          0x00000000        0x0 build/boostv1/production/_ext/1390999610/drv_gfx_lcc_int_pe.o
 .data          0x00000000        0x0 build/boostv1/production/_ext/1390999610/drv_gfx_lcc_int_pe.o
 .reginfo       0x00000000       0x18 build/boostv1/production/_ext/1390999610/drv_gfx_lcc_int_pe.o
 .text.DRV_GFX_LCC_GetBuffer
                0x00000000        0x8 build/boostv1/production/_ext/1390999610/drv_gfx_lcc_int_pe.o
 .text.DRV_GFX_LCC_Close
                0x00000000       0x34 build/boostv1/production/_ext/1390999610/drv_gfx_lcc_int_pe.o
 .text.DRV_GFX_LCC_Status
                0x00000000        0x8 build/boostv1/production/_ext/1390999610/drv_gfx_lcc_int_pe.o
 COMMON         0x00000000      0x780 build/boostv1/production/_ext/1390999610/drv_gfx_lcc_int_pe.o
 .text          0x00000000        0x0 build/boostv1/production/_ext/185269848/drv_tmr.o
 .data          0x00000000        0x0 build/boostv1/production/_ext/185269848/drv_tmr.o
 .reginfo       0x00000000       0x18 build/boostv1/production/_ext/185269848/drv_tmr.o
 .text.DRV_TMR_Deinitialize
                0x00000000       0x5c build/boostv1/production/_ext/185269848/drv_tmr.o
 .text.DRV_TMR_Status
                0x00000000       0x28 build/boostv1/production/_ext/185269848/drv_tmr.o
 .text.DRV_TMR_Close
                0x00000000       0x48 build/boostv1/production/_ext/185269848/drv_tmr.o
 .text.DRV_TMR_ClientStatus
                0x00000000       0x44 build/boostv1/production/_ext/185269848/drv_tmr.o
 .text.DRV_TMR_CounterValue16BitSet
                0x00000000      0x110 build/boostv1/production/_ext/185269848/drv_tmr.o
 .text.DRV_TMR_CounterValue32BitSet
                0x00000000       0xd8 build/boostv1/production/_ext/185269848/drv_tmr.o
 .text.DRV_TMR_CounterValueSet
                0x00000000      0x1b8 build/boostv1/production/_ext/185269848/drv_tmr.o
 .text.DRV_TMR_CounterValue16BitGet
                0x00000000      0x12c build/boostv1/production/_ext/185269848/drv_tmr.o
 .text.DRV_TMR_CounterValue32BitGet
                0x00000000       0xf4 build/boostv1/production/_ext/185269848/drv_tmr.o
 .text.DRV_TMR_CounterValueGet
                0x00000000      0x1d4 build/boostv1/production/_ext/185269848/drv_tmr.o
 .text.DRV_TMR_CounterClear
                0x00000000      0x1a8 build/boostv1/production/_ext/185269848/drv_tmr.o
 .text.DRV_TMR_Alarm32BitRegister
                0x00000000       0xec build/boostv1/production/_ext/185269848/drv_tmr.o
 .text.DRV_TMR_AlarmRegister
                0x00000000      0x210 build/boostv1/production/_ext/185269848/drv_tmr.o
 .text.DRV_TMR_AlarmPeriod16BitSet
                0x00000000      0x154 build/boostv1/production/_ext/185269848/drv_tmr.o
 .text.DRV_TMR_AlarmPeriod32BitSet
                0x00000000       0xac build/boostv1/production/_ext/185269848/drv_tmr.o
 .text.DRV_TMR_AlarmPeriodSet
                0x00000000      0x184 build/boostv1/production/_ext/185269848/drv_tmr.o
 .text.DRV_TMR_AlarmPeriod16BitGet
                0x00000000       0x4c build/boostv1/production/_ext/185269848/drv_tmr.o
 .text.DRV_TMR_AlarmPeriod32BitGet
                0x00000000       0x4c build/boostv1/production/_ext/185269848/drv_tmr.o
 .text.DRV_TMR_AlarmPeriodGet
                0x00000000       0x3c build/boostv1/production/_ext/185269848/drv_tmr.o
 .text.DRV_TMR_Alarm16BitDeregister
                0x00000000       0x74 build/boostv1/production/_ext/185269848/drv_tmr.o
 .text.DRV_TMR_Alarm32BitDeregister
                0x00000000       0x74 build/boostv1/production/_ext/185269848/drv_tmr.o
 .text.DRV_TMR_AlarmDeregister
                0x00000000       0x60 build/boostv1/production/_ext/185269848/drv_tmr.o
 .text.DRV_TMR_Stop
                0x00000000       0x80 build/boostv1/production/_ext/185269848/drv_tmr.o
 .text.DRV_TMR_AlarmHasElapsed
                0x00000000       0x3c build/boostv1/production/_ext/185269848/drv_tmr.o
 .text.DRV_TMR_OperationModeGet
                0x00000000       0x3c build/boostv1/production/_ext/185269848/drv_tmr.o
 .text.DRV_TMR_DividerRangeGet
                0x00000000       0x74 build/boostv1/production/_ext/185269848/drv_tmr.o
 .text.DRV_TMR_GateModeSet
                0x00000000      0x198 build/boostv1/production/_ext/185269848/drv_tmr.o
 .text.DRV_TMR_GateModeClear
                0x00000000      0x198 build/boostv1/production/_ext/185269848/drv_tmr.o
 .text.DRV_TMR_ClockSet
                0x00000000       0xe4 build/boostv1/production/_ext/185269848/drv_tmr.o
 .text.DRV_TMR_PrescalerGet
                0x00000000      0x2a8 build/boostv1/production/_ext/185269848/drv_tmr.o
 .text          0x00000000        0x0 build/boostv1/production/_ext/1945137225/drv_adc10bit.o
 .data          0x00000000        0x0 build/boostv1/production/_ext/1945137225/drv_adc10bit.o
 .reginfo       0x00000000       0x18 build/boostv1/production/_ext/1945137225/drv_adc10bit.o
 .text.DRV_TOUCH_ADC10BIT_Deinitialize
                0x00000000       0x38 build/boostv1/production/_ext/1945137225/drv_adc10bit.o
 .text.DRV_TOUCH_ADC10BIT_Status
                0x00000000        0xc build/boostv1/production/_ext/1945137225/drv_adc10bit.o
 .text.DRV_TOUCH_ADC10BIT_Close
                0x00000000        0x8 build/boostv1/production/_ext/1945137225/drv_adc10bit.o
 .text._ADCInit
                0x00000000        0x8 build/boostv1/production/_ext/1945137225/drv_adc10bit.o
 .text._TouchHardwareInit
                0x00000000       0x10 build/boostv1/production/_ext/1945137225/drv_adc10bit.o
 .text.DRV_TOUCH_ADC10BIT_TouchGetRawX
                0x00000000        0xc build/boostv1/production/_ext/1945137225/drv_adc10bit.o
 .text.DRV_TOUCH_ADC10BIT_TouchGetRawY
                0x00000000        0xc build/boostv1/production/_ext/1945137225/drv_adc10bit.o
 .text.DRV_TOUCH_ADC10BIT_TouchStoreCalibration
                0x00000000        0x8 build/boostv1/production/_ext/1945137225/drv_adc10bit.o
 .text          0x00000000        0x0 build/boostv1/production/_ext/386020355/gfx.o
 .data          0x00000000        0x0 build/boostv1/production/_ext/386020355/gfx.o
 .reginfo       0x00000000       0x18 build/boostv1/production/_ext/386020355/gfx.o
 .text.GFX_Deinitialize
                0x00000000       0x40 build/boostv1/production/_ext/386020355/gfx.o
 .text.GFX_Status
                0x00000000       0x1c build/boostv1/production/_ext/386020355/gfx.o
 .text.GFX_Close
                0x00000000       0x1c build/boostv1/production/_ext/386020355/gfx.o
 .text          0x00000000        0x0 build/boostv1/production/_ext/386020355/gfx_primitive.o
 .data          0x00000000        0x0 build/boostv1/production/_ext/386020355/gfx_primitive.o
 .reginfo       0x00000000       0x18 build/boostv1/production/_ext/386020355/gfx_primitive.o
 .rodata        0x00000000       0xb6 build/boostv1/production/_ext/386020355/gfx_primitive.o
 .text.GFX_RenderingBufferGet
                0x00000000       0x2c build/boostv1/production/_ext/386020355/gfx_primitive.o
 .text.GFX_RenderStatusCheck
                0x00000000        0x8 build/boostv1/production/_ext/386020355/gfx_primitive.o
 .text.GFX_PRIMITIVE_Deinitialize
                0x00000000       0x20 build/boostv1/production/_ext/386020355/gfx_primitive.o
 .text.GFX_PRIMITIVE_Close
                0x00000000       0x34 build/boostv1/production/_ext/386020355/gfx_primitive.o
 .text.GFX_ColorSet
                0x00000000       0x60 build/boostv1/production/_ext/386020355/gfx_primitive.o
 .text.GFX_ColorGet
                0x00000000       0x2c build/boostv1/production/_ext/386020355/gfx_primitive.o
 .text.GFX_TransparentColorEnable
                0x00000000       0x34 build/boostv1/production/_ext/386020355/gfx_primitive.o
 .text.GFX_TransparentColorDisable
                0x00000000       0x30 build/boostv1/production/_ext/386020355/gfx_primitive.o
 .text.GFX_TransparentColorGet
                0x00000000       0x2c build/boostv1/production/_ext/386020355/gfx_primitive.o
 .text.GFX_TransparentColorStatusGet
                0x00000000       0x2c build/boostv1/production/_ext/386020355/gfx_primitive.o
 .text.GFX_TextAreaLeftSet
                0x00000000       0x2c build/boostv1/production/_ext/386020355/gfx_primitive.o
 .text.GFX_TextAreaTopSet
                0x00000000       0x2c build/boostv1/production/_ext/386020355/gfx_primitive.o
 .text.GFX_TextAreaRightSet
                0x00000000       0x2c build/boostv1/production/_ext/386020355/gfx_primitive.o
 .text.GFX_TextAreaBottomSet
                0x00000000       0x2c build/boostv1/production/_ext/386020355/gfx_primitive.o
 .text.GFX_TextAreaLeftGet
                0x00000000       0x2c build/boostv1/production/_ext/386020355/gfx_primitive.o
 .text.GFX_TextAreaTopGet
                0x00000000       0x2c build/boostv1/production/_ext/386020355/gfx_primitive.o
 .text.GFX_TextAreaRightGet
                0x00000000       0x2c build/boostv1/production/_ext/386020355/gfx_primitive.o
 .text.GFX_TextAreaBottomGet
                0x00000000       0x2c build/boostv1/production/_ext/386020355/gfx_primitive.o
 .text.GFX_BarDraw
                0x00000000       0x34 build/boostv1/production/_ext/386020355/gfx_primitive.o
 .text.GFX_LineStyleSet
                0x00000000       0x30 build/boostv1/production/_ext/386020355/gfx_primitive.o
 .text.GFX_LineStyleGet
                0x00000000       0x2c build/boostv1/production/_ext/386020355/gfx_primitive.o
 .text.GFX_LineDraw
                0x00000000       0xa0 build/boostv1/production/_ext/386020355/gfx_primitive.o
 .text.GFX_LineToRelativeDraw
                0x00000000       0x60 build/boostv1/production/_ext/386020355/gfx_primitive.o
 .text.GFX_LineToDraw
                0x00000000       0x58 build/boostv1/production/_ext/386020355/gfx_primitive.o
 .text.GFX_LinePositionXGet
                0x00000000       0x2c build/boostv1/production/_ext/386020355/gfx_primitive.o
 .text.GFX_LinePositionYGet
                0x00000000       0x2c build/boostv1/production/_ext/386020355/gfx_primitive.o
 .text.GFX_LinePositionSet
                0x00000000       0x34 build/boostv1/production/_ext/386020355/gfx_primitive.o
 .text.GFX_LinePositionRelativeSet
                0x00000000       0x44 build/boostv1/production/_ext/386020355/gfx_primitive.o
 .text.GFX_SolidLineDraw
                0x00000000      0x400 build/boostv1/production/_ext/386020355/gfx_primitive.o
 .text.GFX_StyledLineDraw
                0x00000000      0x3dc build/boostv1/production/_ext/386020355/gfx_primitive.o
 .text.GFX_PolygonDraw
                0x00000000       0xd4 build/boostv1/production/_ext/386020355/gfx_primitive.o
 .text.GFX_FillStyleSet
                0x00000000       0x30 build/boostv1/production/_ext/386020355/gfx_primitive.o
 .text.GFX_FillStyleGet
                0x00000000       0x2c build/boostv1/production/_ext/386020355/gfx_primitive.o
 .text.GFX_GradientColorSet
                0x00000000       0x34 build/boostv1/production/_ext/386020355/gfx_primitive.o
 .text.GFX_GradientStartColorGet
                0x00000000       0x2c build/boostv1/production/_ext/386020355/gfx_primitive.o
 .text.GFX_GradientEndColorGet
                0x00000000       0x2c build/boostv1/production/_ext/386020355/gfx_primitive.o
 .text.GFX_RectangleFillDraw
                0x00000000       0x90 build/boostv1/production/_ext/386020355/gfx_primitive.o
 .text.GFX_RectangleRoundFillDraw
                0x00000000       0x78 build/boostv1/production/_ext/386020355/gfx_primitive.o
 .text.GFX_CircleFillDraw
                0x00000000       0x38 build/boostv1/production/_ext/386020355/gfx_primitive.o
 .text.GFX_TextCursorPositionXGet
                0x00000000       0x2c build/boostv1/production/_ext/386020355/gfx_primitive.o
 .text.GFX_TextCursorPositionYGet
                0x00000000       0x2c build/boostv1/production/_ext/386020355/gfx_primitive.o
 .text.GFX_TextCursorPositionSet
                0x00000000       0x34 build/boostv1/production/_ext/386020355/gfx_primitive.o
 .text.GFX_PixelArrayPut
                0x00000000      0x128 build/boostv1/production/_ext/386020355/gfx_primitive.o
 .text.GFX_PixelArrayGet
                0x00000000       0xa0 build/boostv1/production/_ext/386020355/gfx_primitive.o
 .text.GFX_ScreenClear
                0x00000000       0xb0 build/boostv1/production/_ext/386020355/gfx_primitive.o
 .text.GFX_BevelDraw
                0x00000000      0x5ac build/boostv1/production/_ext/386020355/gfx_primitive.o
 .text.GFX_BevelDrawTypeSet
                0x00000000       0x2c build/boostv1/production/_ext/386020355/gfx_primitive.o
 .text.GFX_BevelDrawTypeGet
                0x00000000       0x2c build/boostv1/production/_ext/386020355/gfx_primitive.o
 .text.GFX_RectangleDraw
                0x00000000       0x38 build/boostv1/production/_ext/386020355/gfx_primitive.o
 .text.GFX_RectangleRoundDraw
                0x00000000       0x3c build/boostv1/production/_ext/386020355/gfx_primitive.o
 .text.GFX_CircleDraw
                0x00000000       0x3c build/boostv1/production/_ext/386020355/gfx_primitive.o
 .text.GFX_BevelFillDraw
                0x00000000      0x6a8 build/boostv1/production/_ext/386020355/gfx_primitive.o
 .text.GFX_DRV_FontSet
                0x00000000        0x8 build/boostv1/production/_ext/386020355/gfx_primitive.o
 .text.GFX_DRV_TextCharRender
                0x00000000        0x8 build/boostv1/production/_ext/386020355/gfx_primitive.o
 .text.GFX_FontSet
                0x00000000       0x48 build/boostv1/production/_ext/386020355/gfx_primitive.o
 .text.GFX_FontGet
                0x00000000       0x2c build/boostv1/production/_ext/386020355/gfx_primitive.o
 .text.GFX_TextCharInfoFlashGet
                0x00000000        0x8 build/boostv1/production/_ext/386020355/gfx_primitive.o
 .text.GFX_TextCharInfoExternalGet
                0x00000000        0x8 build/boostv1/production/_ext/386020355/gfx_primitive.o
 .text.GFX_TextCharRender
                0x00000000      0x1c4 build/boostv1/production/_ext/386020355/gfx_primitive.o
 .text.GFX_TextCharDraw
                0x00000000      0x248 build/boostv1/production/_ext/386020355/gfx_primitive.o
 .text.GFX_TextStringDraw
                0x00000000       0xd8 build/boostv1/production/_ext/386020355/gfx_primitive.o
 .text.GFX_TextStringBoxDraw
                0x00000000      0x438 build/boostv1/production/_ext/386020355/gfx_primitive.o
 .text.GFX_TextStringWidthGet
                0x00000000       0x98 build/boostv1/production/_ext/386020355/gfx_primitive.o
 .text.GFX_TextStringWidthRamGet
                0x00000000        0x8 build/boostv1/production/_ext/386020355/gfx_primitive.o
 .text.GFX_TextStringWidthFlashGet
                0x00000000        0x8 build/boostv1/production/_ext/386020355/gfx_primitive.o
 .text.GFX_TextStringWidthExternalGet
                0x00000000        0x8 build/boostv1/production/_ext/386020355/gfx_primitive.o
 .text.GFX_TextCursorTypeSet
                0x00000000       0x40 build/boostv1/production/_ext/386020355/gfx_primitive.o
 .text.GFX_TextCursorTypeGet
                0x00000000       0x2c build/boostv1/production/_ext/386020355/gfx_primitive.o
 .text.GFX_TextCursorWidthGet
                0x00000000       0x40 build/boostv1/production/_ext/386020355/gfx_primitive.o
 .text.GFX_TextCursorDraw
                0x00000000       0xcc build/boostv1/production/_ext/386020355/gfx_primitive.o
 .text.GFX_DRV_TextStringWidthGet
                0x00000000        0x8 build/boostv1/production/_ext/386020355/gfx_primitive.o
 .text.GFX_ImagePartialDraw
                0x00000000       0x64 build/boostv1/production/_ext/386020355/gfx_primitive.o
 .text.GFX_ImageDraw
                0x00000000       0x64 build/boostv1/production/_ext/386020355/gfx_primitive.o
 .text.GFX_SineCosineGet
                0x00000000      0x148 build/boostv1/production/_ext/386020355/gfx_primitive.o
 .text.GFX_BackgroundSet
                0x00000000       0x3c build/boostv1/production/_ext/386020355/gfx_primitive.o
 .text.GFX_BackgroundTypeSet
                0x00000000       0x2c build/boostv1/production/_ext/386020355/gfx_primitive.o
 .text.GFX_BackgroundTypeGet
                0x00000000       0x2c build/boostv1/production/_ext/386020355/gfx_primitive.o
 .text.GFX_BackgroundImageGet
                0x00000000       0x2c build/boostv1/production/_ext/386020355/gfx_primitive.o
 .text.GFX_BackgroundColorGet
                0x00000000       0x2c build/boostv1/production/_ext/386020355/gfx_primitive.o
 .text.GFX_BackgroundImageLeftGet
                0x00000000       0x2c build/boostv1/production/_ext/386020355/gfx_primitive.o
 .text.GFX_BackgroundImageTopGet
                0x00000000       0x2c build/boostv1/production/_ext/386020355/gfx_primitive.o
 .text.GFX_CirclePointGet
                0x00000000      0x140 build/boostv1/production/_ext/386020355/gfx_primitive.o
 .text.GFX_RenderToDisplayBufferDisable
                0x00000000       0x30 build/boostv1/production/_ext/386020355/gfx_primitive.o
 .text.GFX_RenderToDisplayBufferEnable
                0x00000000       0x2c build/boostv1/production/_ext/386020355/gfx_primitive.o
 .text.GFX_RenderToDisplayBufferDisableFlagGet
                0x00000000       0x2c build/boostv1/production/_ext/386020355/gfx_primitive.o
 .text.GFX_ThickBevelDraw
                0x00000000      0x998 build/boostv1/production/_ext/386020355/gfx_primitive.o
 .text.GFX_RenderStatusGet
                0x00000000        0x8 build/boostv1/production/_ext/386020355/gfx_primitive.o
 .text.GFX_PageSet
                0x00000000       0x90 build/boostv1/production/_ext/386020355/gfx_primitive.o
 .text.GFX_PageGet
                0x00000000       0x50 build/boostv1/production/_ext/386020355/gfx_primitive.o
 .text.GFX_Layer
                0x00000000      0x11c build/boostv1/production/_ext/386020355/gfx_primitive.o
 .text.GFX_ClipSet
                0x00000000       0x94 build/boostv1/production/_ext/386020355/gfx_primitive.o
 .text.GFX_ClipCoordIn
                0x00000000       0x74 build/boostv1/production/_ext/386020355/gfx_primitive.o
 .text.GFX_CopyPageWindow
                0x00000000       0x5c build/boostv1/production/_ext/386020355/gfx_primitive.o
 .text.GFX_AlphaBlendWindow
                0x00000000       0x5c build/boostv1/production/_ext/386020355/gfx_primitive.o
 .text._AlphaBlendWindow
                0x00000000        0x8 build/boostv1/production/_ext/386020355/gfx_primitive.o
 .text.GFX_AlphaParamsSet
                0x00000000       0x64 build/boostv1/production/_ext/386020355/gfx_primitive.o
 .text.GFX_MaxXGet
                0x00000000       0x44 build/boostv1/production/_ext/386020355/gfx_primitive.o
 .text.GFX_MaxYGet
                0x00000000       0x44 build/boostv1/production/_ext/386020355/gfx_primitive.o
 COMMON         0x00000000       0x10 build/boostv1/production/_ext/386020355/gfx_primitive.o
 .text          0x00000000        0x0 build/boostv1/production/_ext/1271179505/sys_devcon.o
 .data          0x00000000        0x0 build/boostv1/production/_ext/1271179505/sys_devcon.o
 .bss           0x00000000        0x0 build/boostv1/production/_ext/1271179505/sys_devcon.o
 .reginfo       0x00000000       0x18 build/boostv1/production/_ext/1271179505/sys_devcon.o
 .text.SYS_DEVCON_Reinitialize
                0x00000000       0x10 build/boostv1/production/_ext/1271179505/sys_devcon.o
 .text.SYS_DEVCON_Deinitialize
                0x00000000        0x8 build/boostv1/production/_ext/1271179505/sys_devcon.o
 .text.SYS_DEVCON_Status
                0x00000000        0x8 build/boostv1/production/_ext/1271179505/sys_devcon.o
 .text.SYS_DEVCON_JTAGEnable
                0x00000000       0x18 build/boostv1/production/_ext/1271179505/sys_devcon.o
 .text.SYS_DEVCON_JTAGDisable
                0x00000000       0x1c build/boostv1/production/_ext/1271179505/sys_devcon.o
 .text.SYS_DEVCON_TraceEnable
                0x00000000       0x18 build/boostv1/production/_ext/1271179505/sys_devcon.o
 .text.SYS_DEVCON_TraceDisable
                0x00000000       0x18 build/boostv1/production/_ext/1271179505/sys_devcon.o
 .text.SYS_DEVCON_PowerModeEnter
                0x00000000       0x54 build/boostv1/production/_ext/1271179505/sys_devcon.o
 .text          0x00000000        0x0 build/boostv1/production/_ext/1271179505/sys_devcon_pic32mz.o
 .data          0x00000000        0x0 build/boostv1/production/_ext/1271179505/sys_devcon_pic32mz.o
 .bss           0x00000000        0x0 build/boostv1/production/_ext/1271179505/sys_devcon_pic32mz.o
 .reginfo       0x00000000       0x18 build/boostv1/production/_ext/1271179505/sys_devcon_pic32mz.o
 .text.SYS_DEVCON_CacheInit
                0x00000000       0x24 build/boostv1/production/_ext/1271179505/sys_devcon_pic32mz.o
 .text.SYS_DEVCON_CacheFlush
                0x00000000       0x24 build/boostv1/production/_ext/1271179505/sys_devcon_pic32mz.o
 .text.SYS_DEVCON_DataCacheFlush
                0x00000000       0x24 build/boostv1/production/_ext/1271179505/sys_devcon_pic32mz.o
 .text.SYS_DEVCON_InstructionCacheFlush
                0x00000000       0x24 build/boostv1/production/_ext/1271179505/sys_devcon_pic32mz.o
 .text.SYS_DEVCON_CacheClean
                0x00000000       0x24 build/boostv1/production/_ext/1271179505/sys_devcon_pic32mz.o
 .text.SYS_DEVCON_DataCacheClean
                0x00000000       0x24 build/boostv1/production/_ext/1271179505/sys_devcon_pic32mz.o
 .text.SYS_DEVCON_DataCacheInvalidate
                0x00000000       0x24 build/boostv1/production/_ext/1271179505/sys_devcon_pic32mz.o
 .text.SYS_DEVCON_InstructionCacheInvalidate
                0x00000000       0x24 build/boostv1/production/_ext/1271179505/sys_devcon_pic32mz.o
 .text.SYS_DEVCON_InstructionCacheLock
                0x00000000       0x24 build/boostv1/production/_ext/1271179505/sys_devcon_pic32mz.o
 .text.SYS_DEVCON_DataCacheLock
                0x00000000       0x24 build/boostv1/production/_ext/1271179505/sys_devcon_pic32mz.o
 .text.SYS_DEVCON_CacheSync
                0x00000000       0x24 build/boostv1/production/_ext/1271179505/sys_devcon_pic32mz.o
 .text.SYS_DEVCON_CacheCoherencySet
                0x00000000       0x2c build/boostv1/production/_ext/1271179505/sys_devcon_pic32mz.o
 .text.SYS_DEVCON_CacheCoherencyGet
                0x00000000       0x1c build/boostv1/production/_ext/1271179505/sys_devcon_pic32mz.o
 .text.SYS_DEVCON_DataCacheAssociativityGet
                0x00000000       0x24 build/boostv1/production/_ext/1271179505/sys_devcon_pic32mz.o
 .text.SYS_DEVCON_InstructionCacheAssociativityGet
                0x00000000       0x24 build/boostv1/production/_ext/1271179505/sys_devcon_pic32mz.o
 .text.SYS_DEVCON_DataCacheLineSizeGet
                0x00000000       0x24 build/boostv1/production/_ext/1271179505/sys_devcon_pic32mz.o
 .text.SYS_DEVCON_InstructionCacheLineSizeGet
                0x00000000       0x24 build/boostv1/production/_ext/1271179505/sys_devcon_pic32mz.o
 .text.SYS_DEVCON_DataCacheLinesPerWayGet
                0x00000000       0x24 build/boostv1/production/_ext/1271179505/sys_devcon_pic32mz.o
 .text.SYS_DEVCON_InstructionCacheLinesPerWayGet
                0x00000000       0x24 build/boostv1/production/_ext/1271179505/sys_devcon_pic32mz.o
 .text.SYS_DEVCON_DataCacheSizeGet
                0x00000000       0x24 build/boostv1/production/_ext/1271179505/sys_devcon_pic32mz.o
 .text.SYS_DEVCON_InstructionCacheSizeGet
                0x00000000       0x24 build/boostv1/production/_ext/1271179505/sys_devcon_pic32mz.o
 .text          0x00000000      0x6bc build/boostv1/production/_ext/1271179505/sys_devcon_cache_pic32mz.o
 .data          0x00000000        0x0 build/boostv1/production/_ext/1271179505/sys_devcon_cache_pic32mz.o
 .bss           0x00000000        0x0 build/boostv1/production/_ext/1271179505/sys_devcon_cache_pic32mz.o
 .reginfo       0x00000000       0x18 build/boostv1/production/_ext/1271179505/sys_devcon_cache_pic32mz.o
 .debug_line    0x00000000      0x20f build/boostv1/production/_ext/1271179505/sys_devcon_cache_pic32mz.o
 .debug_info    0x00000000       0xa7 build/boostv1/production/_ext/1271179505/sys_devcon_cache_pic32mz.o
 .debug_abbrev  0x00000000       0x14 build/boostv1/production/_ext/1271179505/sys_devcon_cache_pic32mz.o
 .debug_aranges
                0x00000000       0x20 build/boostv1/production/_ext/1271179505/sys_devcon_cache_pic32mz.o
 .text          0x00000000        0x0 build/boostv1/production/_ext/65930274/sys_dma.o
 .data          0x00000000        0x0 build/boostv1/production/_ext/65930274/sys_dma.o
 .bss           0x00000000        0x0 build/boostv1/production/_ext/65930274/sys_dma.o
 .reginfo       0x00000000       0x18 build/boostv1/production/_ext/65930274/sys_dma.o
 .text.SYS_DMA_ChannelRelease
                0x00000000      0x170 build/boostv1/production/_ext/65930274/sys_dma.o
 .text.SYS_DMA_ChannelSetupMatchAbortMode
                0x00000000       0xd4 build/boostv1/production/_ext/65930274/sys_dma.o
 .text.SYS_DMA_ChannelCRCSet
                0x00000000      0x114 build/boostv1/production/_ext/65930274/sys_dma.o
 .text.SYS_DMA_ChannelCRCGet
                0x00000000       0x10 build/boostv1/production/_ext/65930274/sys_dma.o
 .text.SYS_DMA_ChannelDisable
                0x00000000       0x3c build/boostv1/production/_ext/65930274/sys_dma.o
 .text.SYS_DMA_ChannelTransferSet
                0x00000000      0x1a0 build/boostv1/production/_ext/65930274/sys_dma.o
 .text.SYS_DMA_ChannelSourceTransferredSizeGet
                0x00000000       0x30 build/boostv1/production/_ext/65930274/sys_dma.o
 .text.SYS_DMA_ChannelDestinationTransferredSizeGet
                0x00000000       0x30 build/boostv1/production/_ext/65930274/sys_dma.o
 .text.SYS_DMA_ChannelTransferEventHandlerSet
                0x00000000       0x20 build/boostv1/production/_ext/65930274/sys_dma.o
 .text.SYS_DMA_TasksISR
                0x00000000      0x124 build/boostv1/production/_ext/65930274/sys_dma.o
 .text.SYS_DMA_TasksError
                0x00000000       0xdc build/boostv1/production/_ext/65930274/sys_dma.o
 .text.SYS_DMA_TasksErrorISR
                0x00000000       0xbc build/boostv1/production/_ext/65930274/sys_dma.o
 .text.SYS_DMA_ChannelErrorGet
                0x00000000        0x8 build/boostv1/production/_ext/65930274/sys_dma.o
 .text.SYS_DMA_ChannelForceAbort
                0x00000000       0x3c build/boostv1/production/_ext/65930274/sys_dma.o
 .text.SYS_DMA_ChannelAbortEventSet
                0x00000000       0x98 build/boostv1/production/_ext/65930274/sys_dma.o
 .text.SYS_DMA_ChannelIsBusy
                0x00000000       0x30 build/boostv1/production/_ext/65930274/sys_dma.o
 .text.SYS_DMA_IsBusy
                0x00000000       0x10 build/boostv1/production/_ext/65930274/sys_dma.o
 .text          0x00000000        0x0 build/boostv1/production/_ext/122796885/sys_int_pic32.o
 .data          0x00000000        0x0 build/boostv1/production/_ext/122796885/sys_int_pic32.o
 .bss           0x00000000        0x0 build/boostv1/production/_ext/122796885/sys_int_pic32.o
 .reginfo       0x00000000       0x18 build/boostv1/production/_ext/122796885/sys_int_pic32.o
 .text.SYS_INT_StatusGetAndDisable
                0x00000000       0x1c build/boostv1/production/_ext/122796885/sys_int_pic32.o
 .text.SYS_INT_StatusRestore
                0x00000000       0x1c build/boostv1/production/_ext/122796885/sys_int_pic32.o
 .text.SYS_INT_Disable
                0x00000000       0x20 build/boostv1/production/_ext/122796885/sys_int_pic32.o
 .text.SYS_INT_ExternalInterruptTriggerSet
                0x00000000       0x34 build/boostv1/production/_ext/122796885/sys_int_pic32.o
 .text          0x00000000        0x0 build/boostv1/production/_ext/77319752/sys_ports.o
 .data          0x00000000        0x0 build/boostv1/production/_ext/77319752/sys_ports.o
 .bss           0x00000000        0x0 build/boostv1/production/_ext/77319752/sys_ports.o
 .reginfo       0x00000000       0x18 build/boostv1/production/_ext/77319752/sys_ports.o
 .text.SYS_PORTS_Read
                0x00000000       0x34 build/boostv1/production/_ext/77319752/sys_ports.o
 .text.SYS_PORTS_Write
                0x00000000       0x2c build/boostv1/production/_ext/77319752/sys_ports.o
 .text.SYS_PORTS_Set
                0x00000000       0x38 build/boostv1/production/_ext/77319752/sys_ports.o
 .text.SYS_PORTS_Clear
                0x00000000       0x34 build/boostv1/production/_ext/77319752/sys_ports.o
 .text.SYS_PORTS_DirectionSelect
                0x00000000       0x6c build/boostv1/production/_ext/77319752/sys_ports.o
 .text.SYS_PORTS_DirectionGet
                0x00000000       0x34 build/boostv1/production/_ext/77319752/sys_ports.o
 .text.SYS_PORTS_Toggle
                0x00000000       0x34 build/boostv1/production/_ext/77319752/sys_ports.o
 .text.SYS_PORTS_OpenDrainEnable
                0x00000000       0x34 build/boostv1/production/_ext/77319752/sys_ports.o
 .text.SYS_PORTS_OpenDrainDisable
                0x00000000       0x34 build/boostv1/production/_ext/77319752/sys_ports.o
 .text.SYS_PORTS_ChangeNotificationGlobalEnable
                0x00000000        0x8 build/boostv1/production/_ext/77319752/sys_ports.o
 .text.SYS_PORTS_GlobalChangeNotificationDisable
                0x00000000        0x8 build/boostv1/production/_ext/77319752/sys_ports.o
 .text.SYS_PORTS_ChangeNotificationEnable
                0x00000000        0x8 build/boostv1/production/_ext/77319752/sys_ports.o
 .text.SYS_PORTS_ChangeNotificationDisable
                0x00000000        0x8 build/boostv1/production/_ext/77319752/sys_ports.o
 .text.SYS_PORTS_ChangeNotificationInIdleModeEnable
                0x00000000        0x8 build/boostv1/production/_ext/77319752/sys_ports.o
 .text.SYS_PORTS_ChangeNotificationInIdleModeDisable
                0x00000000        0x8 build/boostv1/production/_ext/77319752/sys_ports.o
 .text.SYS_PORTS_ChangeNotificationPullUpEnable
                0x00000000        0x8 build/boostv1/production/_ext/77319752/sys_ports.o
 .text.SYS_PORTS_ChangeNotificationPullUpDisable
                0x00000000        0x8 build/boostv1/production/_ext/77319752/sys_ports.o
 .text.SYS_PORTS_PinModeSelect
                0x00000000       0x68 build/boostv1/production/_ext/77319752/sys_ports.o
 .text.SYS_PORTS_PinWrite
                0x00000000       0x4c build/boostv1/production/_ext/77319752/sys_ports.o
 .text.SYS_PORTS_PinRead
                0x00000000       0x40 build/boostv1/production/_ext/77319752/sys_ports.o
 .text.SYS_PORTS_PinToggle
                0x00000000       0x38 build/boostv1/production/_ext/77319752/sys_ports.o
 .text.SYS_PORTS_PinSet
                0x00000000       0x38 build/boostv1/production/_ext/77319752/sys_ports.o
 .text.SYS_PORTS_PinClear
                0x00000000       0x38 build/boostv1/production/_ext/77319752/sys_ports.o
 .text.SYS_PORTS_PinDirectionSelect
                0x00000000       0x78 build/boostv1/production/_ext/77319752/sys_ports.o
 .text.SYS_PORTS_PinOpenDrainEnable
                0x00000000       0x38 build/boostv1/production/_ext/77319752/sys_ports.o
 .text.SYS_PORTS_PinOpenDrainDisable
                0x00000000       0x38 build/boostv1/production/_ext/77319752/sys_ports.o
 .text.SYS_PORTS_RemapInput
                0x00000000       0x64 build/boostv1/production/_ext/77319752/sys_ports.o
 .text.SYS_PORTS_RemapOutput
                0x00000000       0x70 build/boostv1/production/_ext/77319752/sys_ports.o
 .text          0x00000000        0x0 build/boostv1/production/_ext/1264926591/sys_tmr.o
 .data          0x00000000        0x0 build/boostv1/production/_ext/1264926591/sys_tmr.o
 .reginfo       0x00000000       0x18 build/boostv1/production/_ext/1264926591/sys_tmr.o
 .text._SYS_TMR_ClientCheckSrvLock
                0x00000000       0x90 build/boostv1/production/_ext/1264926591/sys_tmr.o
 .text.SYS_TMR_Deinitialize
                0x00000000       0xc8 build/boostv1/production/_ext/1264926591/sys_tmr.o
 .text.SYS_TMR_Status
                0x00000000        0xc build/boostv1/production/_ext/1264926591/sys_tmr.o
 .text.SYS_TMR_ModuleStatusGet
                0x00000000        0xc build/boostv1/production/_ext/1264926591/sys_tmr.o
 .text._SYS_TMR_ClientCreate
                0x00000000      0x148 build/boostv1/production/_ext/1264926591/sys_tmr.o
 .text._SYS_TMR_ClientParamSet
                0x00000000       0xe8 build/boostv1/production/_ext/1264926591/sys_tmr.o
 .text.SYS_TMR_ObjectCreate
                0x00000000       0x1c build/boostv1/production/_ext/1264926591/sys_tmr.o
 .text.SYS_TMR_ObjectDelete
                0x00000000       0x54 build/boostv1/production/_ext/1264926591/sys_tmr.o
 .text.SYS_TMR_CallbackStop
                0x00000000       0x1c build/boostv1/production/_ext/1264926591/sys_tmr.o
 .text.SYS_TMR_ObjectReload
                0x00000000       0xb4 build/boostv1/production/_ext/1264926591/sys_tmr.o
 .text.SYS_TMR_ObjectCountGet
                0x00000000       0xe4 build/boostv1/production/_ext/1264926591/sys_tmr.o
 .text.SYS_TMR_CallbackPeriodic
                0x00000000       0x1c build/boostv1/production/_ext/1264926591/sys_tmr.o
 .text.SYS_TMR_CallbackSingle
                0x00000000       0x1c build/boostv1/production/_ext/1264926591/sys_tmr.o
 .text.SYS_TMR_DelayMS
                0x00000000       0x24 build/boostv1/production/_ext/1264926591/sys_tmr.o
 .text.SYS_TMR_DelayStatusGet
                0x00000000       0x20 build/boostv1/production/_ext/1264926591/sys_tmr.o
 .text.SYS_TMR_TickCountGet
                0x00000000       0x24 build/boostv1/production/_ext/1264926591/sys_tmr.o
 .text.SYS_TMR_TickCounterFrequencyGet
                0x00000000       0x24 build/boostv1/production/_ext/1264926591/sys_tmr.o
 .text.SYS_TMR_SystemCountFrequencyGet
                0x00000000       0x24 build/boostv1/production/_ext/1264926591/sys_tmr.o
 .text.SYS_TMR_SystemCountGet
                0x00000000       0x80 build/boostv1/production/_ext/1264926591/sys_tmr.o
 .text          0x00000000        0x0 build/boostv1/production/_ext/846513563/sys_touch.o
 .data          0x00000000        0x0 build/boostv1/production/_ext/846513563/sys_touch.o
 .bss           0x00000000        0x0 build/boostv1/production/_ext/846513563/sys_touch.o
 .reginfo       0x00000000       0x18 build/boostv1/production/_ext/846513563/sys_touch.o
 .text.SYS_TOUCH_CalibrationSet
                0x00000000       0x4c build/boostv1/production/_ext/846513563/sys_touch.o
 .text          0x00000000        0x0 c:/program files (x86)/microchip/xc32/v1.40/bin/bin/../../lib/gcc/pic32mx/4.8.3/../../../../pic32mx/lib/./proc/32MZ2048ECM100\default_isr_vectors.o
 .data          0x00000000        0x0 c:/program files (x86)/microchip/xc32/v1.40/bin/bin/../../lib/gcc/pic32mx/4.8.3/../../../../pic32mx/lib/./proc/32MZ2048ECM100\default_isr_vectors.o
 .bss           0x00000000        0x0 c:/program files (x86)/microchip/xc32/v1.40/bin/bin/../../lib/gcc/pic32mx/4.8.3/../../../../pic32mx/lib/./proc/32MZ2048ECM100\default_isr_vectors.o
 .reginfo       0x00000000       0x18 c:/program files (x86)/microchip/xc32/v1.40/bin/bin/../../lib/gcc/pic32mx/4.8.3/../../../../pic32mx/lib/./proc/32MZ2048ECM100\default_isr_vectors.o
 .discard       0x00000000        0x4 c:/program files (x86)/microchip/xc32/v1.40/bin/bin/../../lib/gcc/pic32mx/4.8.3/../../../../pic32mx/lib/./proc/32MZ2048ECM100\default_isr_vectors.o
 .data          0x00000000        0x0 c:/program files (x86)/microchip/xc32/v1.40/bin/bin/../../lib/gcc/pic32mx/4.8.3/../../../../pic32mx/lib\pic32_software_reset.o
 .bss           0x00000000        0x0 c:/program files (x86)/microchip/xc32/v1.40/bin/bin/../../lib/gcc/pic32mx/4.8.3/../../../../pic32mx/lib\pic32_software_reset.o
 .reginfo       0x00000000       0x18 c:/program files (x86)/microchip/xc32/v1.40/bin/bin/../../lib/gcc/pic32mx/4.8.3/../../../../pic32mx/lib\pic32_software_reset.o
 .text          0x00000000        0x0 c:/program files (x86)/microchip/xc32/v1.40/bin/bin/../../lib/gcc/pic32mx/4.8.3/../../../../pic32mx/lib/./proc/32MZ2048ECM100\processor.o
 .data          0x00000000        0x0 c:/program files (x86)/microchip/xc32/v1.40/bin/bin/../../lib/gcc/pic32mx/4.8.3/../../../../pic32mx/lib/./proc/32MZ2048ECM100\processor.o
 .bss           0x00000000        0x0 c:/program files (x86)/microchip/xc32/v1.40/bin/bin/../../lib/gcc/pic32mx/4.8.3/../../../../pic32mx/lib/./proc/32MZ2048ECM100\processor.o
 .reginfo       0x00000000       0x18 c:/program files (x86)/microchip/xc32/v1.40/bin/bin/../../lib/gcc/pic32mx/4.8.3/../../../../pic32mx/lib/./proc/32MZ2048ECM100\processor.o
 .text          0x00000000        0x0 c:/program files (x86)/microchip/xc32/v1.40/bin/bin/../../lib/gcc/pic32mx/4.8.3/../../../../pic32mx/lib/./proc/32MZ2048ECM100\vector_offset_init.o
 .data          0x00000000        0x0 c:/program files (x86)/microchip/xc32/v1.40/bin/bin/../../lib/gcc/pic32mx/4.8.3/../../../../pic32mx/lib/./proc/32MZ2048ECM100\vector_offset_init.o
 .bss           0x00000000        0x0 c:/program files (x86)/microchip/xc32/v1.40/bin/bin/../../lib/gcc/pic32mx/4.8.3/../../../../pic32mx/lib/./proc/32MZ2048ECM100\vector_offset_init.o
 .reginfo       0x00000000       0x18 c:/program files (x86)/microchip/xc32/v1.40/bin/bin/../../lib/gcc/pic32mx/4.8.3/../../../../pic32mx/lib/./proc/32MZ2048ECM100\vector_offset_init.o
 .text          0x00000000      0x458 c:/program files (x86)/microchip/xc32/v1.40/bin/bin/../../lib/gcc/pic32mx/4.8.3\libgcc.a(_udivdi3.o)
 .data          0x00000000        0x0 c:/program files (x86)/microchip/xc32/v1.40/bin/bin/../../lib/gcc/pic32mx/4.8.3\libgcc.a(_udivdi3.o)
 .bss           0x00000000        0x0 c:/program files (x86)/microchip/xc32/v1.40/bin/bin/../../lib/gcc/pic32mx/4.8.3\libgcc.a(_udivdi3.o)
 .reginfo       0x00000000       0x18 c:/program files (x86)/microchip/xc32/v1.40/bin/bin/../../lib/gcc/pic32mx/4.8.3\libgcc.a(_udivdi3.o)
 .data          0x00000000        0x0 c:/program files (x86)/microchip/xc32/v1.40/bin/bin/../../lib/gcc/pic32mx/4.8.3\libgcc.a(floatunsisf.o)
 .bss           0x00000000        0x0 c:/program files (x86)/microchip/xc32/v1.40/bin/bin/../../lib/gcc/pic32mx/4.8.3\libgcc.a(floatunsisf.o)
 .reginfo       0x00000000       0x18 c:/program files (x86)/microchip/xc32/v1.40/bin/bin/../../lib/gcc/pic32mx/4.8.3\libgcc.a(floatunsisf.o)
 .data          0x00000000        0x0 c:/program files (x86)/microchip/xc32/v1.40/bin/bin/../../lib/gcc/pic32mx/4.8.3/../../../../pic32mx/lib\libpic32.a(memset.o)
 .bss           0x00000000        0x0 c:/program files (x86)/microchip/xc32/v1.40/bin/bin/../../lib/gcc/pic32mx/4.8.3/../../../../pic32mx/lib\libpic32.a(memset.o)
 .reginfo       0x00000000       0x18 c:/program files (x86)/microchip/xc32/v1.40/bin/bin/../../lib/gcc/pic32mx/4.8.3/../../../../pic32mx/lib\libpic32.a(memset.o)
 .text          0x00000000        0x0 c:/program files (x86)/microchip/xc32/v1.40/bin/bin/../../lib/gcc/pic32mx/4.8.3/../../../../pic32mx/lib\libpic32.a(default-bootstrap-exception-handler.o)
 .data          0x00000000        0x0 c:/program files (x86)/microchip/xc32/v1.40/bin/bin/../../lib/gcc/pic32mx/4.8.3/../../../../pic32mx/lib\libpic32.a(default-bootstrap-exception-handler.o)
 .bss           0x00000000        0x0 c:/program files (x86)/microchip/xc32/v1.40/bin/bin/../../lib/gcc/pic32mx/4.8.3/../../../../pic32mx/lib\libpic32.a(default-bootstrap-exception-handler.o)
 .reginfo       0x00000000       0x18 c:/program files (x86)/microchip/xc32/v1.40/bin/bin/../../lib/gcc/pic32mx/4.8.3/../../../../pic32mx/lib\libpic32.a(default-bootstrap-exception-handler.o)
 .text          0x00000000        0x0 c:/program files (x86)/microchip/xc32/v1.40/bin/bin/../../lib/gcc/pic32mx/4.8.3/../../../../pic32mx/lib\libpic32.a(default-on-reset.o)
 .data          0x00000000        0x0 c:/program files (x86)/microchip/xc32/v1.40/bin/bin/../../lib/gcc/pic32mx/4.8.3/../../../../pic32mx/lib\libpic32.a(default-on-reset.o)
 .bss           0x00000000        0x0 c:/program files (x86)/microchip/xc32/v1.40/bin/bin/../../lib/gcc/pic32mx/4.8.3/../../../../pic32mx/lib\libpic32.a(default-on-reset.o)
 .reginfo       0x00000000       0x18 c:/program files (x86)/microchip/xc32/v1.40/bin/bin/../../lib/gcc/pic32mx/4.8.3/../../../../pic32mx/lib\libpic32.a(default-on-reset.o)
 .text          0x00000000        0x0 c:/program files (x86)/microchip/xc32/v1.40/bin/bin/../../lib/gcc/pic32mx/4.8.3/../../../../pic32mx/lib\libpic32.a(default-on-bootstrap.o)
 .data          0x00000000        0x0 c:/program files (x86)/microchip/xc32/v1.40/bin/bin/../../lib/gcc/pic32mx/4.8.3/../../../../pic32mx/lib\libpic32.a(default-on-bootstrap.o)
 .bss           0x00000000        0x0 c:/program files (x86)/microchip/xc32/v1.40/bin/bin/../../lib/gcc/pic32mx/4.8.3/../../../../pic32mx/lib\libpic32.a(default-on-bootstrap.o)
 .reginfo       0x00000000       0x18 c:/program files (x86)/microchip/xc32/v1.40/bin/bin/../../lib/gcc/pic32mx/4.8.3/../../../../pic32mx/lib\libpic32.a(default-on-bootstrap.o)
 .data          0x00000000        0x0 c:/program files (x86)/microchip/xc32/v1.40/bin/bin/../../lib/gcc/pic32mx/4.8.3/../../../../pic32mx/lib\libpic32.a(default-nmi-handler.o)
 .bss           0x00000000        0x0 c:/program files (x86)/microchip/xc32/v1.40/bin/bin/../../lib/gcc/pic32mx/4.8.3/../../../../pic32mx/lib\libpic32.a(default-nmi-handler.o)
 .reginfo       0x00000000       0x18 c:/program files (x86)/microchip/xc32/v1.40/bin/bin/../../lib/gcc/pic32mx/4.8.3/../../../../pic32mx/lib\libpic32.a(default-nmi-handler.o)
 .text          0x00000000        0x0 c:/program files (x86)/microchip/xc32/v1.40/bin/bin/../../lib/gcc/pic32mx/4.8.3/../../../../pic32mx/lib\libpic32.a(pic32_init_cache.o)
 .data          0x00000000        0x0 c:/program files (x86)/microchip/xc32/v1.40/bin/bin/../../lib/gcc/pic32mx/4.8.3/../../../../pic32mx/lib\libpic32.a(pic32_init_cache.o)
 .bss           0x00000000        0x0 c:/program files (x86)/microchip/xc32/v1.40/bin/bin/../../lib/gcc/pic32mx/4.8.3/../../../../pic32mx/lib\libpic32.a(pic32_init_cache.o)
 .reginfo       0x00000000       0x18 c:/program files (x86)/microchip/xc32/v1.40/bin/bin/../../lib/gcc/pic32mx/4.8.3/../../../../pic32mx/lib\libpic32.a(pic32_init_cache.o)
 .cache_init.pic32_size_cache
                0x00000000       0x58 c:/program files (x86)/microchip/xc32/v1.40/bin/bin/../../lib/gcc/pic32mx/4.8.3/../../../../pic32mx/lib\libpic32.a(pic32_init_cache.o)
 .text          0x00000000        0x0 c:/program files (x86)/microchip/xc32/v1.40/bin/bin/../../lib/gcc/pic32mx/4.8.3/../../../../pic32mx/lib\libpic32.a(pic32_init_tlb_ebi_sqi.o)
 .data          0x00000000        0x0 c:/program files (x86)/microchip/xc32/v1.40/bin/bin/../../lib/gcc/pic32mx/4.8.3/../../../../pic32mx/lib\libpic32.a(pic32_init_tlb_ebi_sqi.o)
 .bss           0x00000000        0x0 c:/program files (x86)/microchip/xc32/v1.40/bin/bin/../../lib/gcc/pic32mx/4.8.3/../../../../pic32mx/lib\libpic32.a(pic32_init_tlb_ebi_sqi.o)
 .reginfo       0x00000000       0x18 c:/program files (x86)/microchip/xc32/v1.40/bin/bin/../../lib/gcc/pic32mx/4.8.3/../../../../pic32mx/lib\libpic32.a(pic32_init_tlb_ebi_sqi.o)
 .text          0x00000000        0x0 c:/program files (x86)/microchip/xc32/v1.40/bin/bin/../../lib/gcc/pic32mx/4.8.3/../../../../pic32mx/lib\libpic32.a(general-exception.o)
 .data          0x00000000        0x0 c:/program files (x86)/microchip/xc32/v1.40/bin/bin/../../lib/gcc/pic32mx/4.8.3/../../../../pic32mx/lib\libpic32.a(general-exception.o)
 .bss           0x00000000        0x0 c:/program files (x86)/microchip/xc32/v1.40/bin/bin/../../lib/gcc/pic32mx/4.8.3/../../../../pic32mx/lib\libpic32.a(general-exception.o)
 .reginfo       0x00000000       0x18 c:/program files (x86)/microchip/xc32/v1.40/bin/bin/../../lib/gcc/pic32mx/4.8.3/../../../../pic32mx/lib\libpic32.a(general-exception.o)
 .text          0x00000000        0x0 c:/program files (x86)/microchip/xc32/v1.40/bin/bin/../../lib/gcc/pic32mx/4.8.3/../../../../pic32mx/lib\libpic32.a(cache-err-exception.o)
 .data          0x00000000        0x0 c:/program files (x86)/microchip/xc32/v1.40/bin/bin/../../lib/gcc/pic32mx/4.8.3/../../../../pic32mx/lib\libpic32.a(cache-err-exception.o)
 .bss           0x00000000        0x0 c:/program files (x86)/microchip/xc32/v1.40/bin/bin/../../lib/gcc/pic32mx/4.8.3/../../../../pic32mx/lib\libpic32.a(cache-err-exception.o)
 .reginfo       0x00000000       0x18 c:/program files (x86)/microchip/xc32/v1.40/bin/bin/../../lib/gcc/pic32mx/4.8.3/../../../../pic32mx/lib\libpic32.a(cache-err-exception.o)
 .text          0x00000000        0x0 c:/program files (x86)/microchip/xc32/v1.40/bin/bin/../../lib/gcc/pic32mx/4.8.3/../../../../pic32mx/lib\libpic32.a(simple-tlb-refill-exception.o)
 .data          0x00000000        0x0 c:/program files (x86)/microchip/xc32/v1.40/bin/bin/../../lib/gcc/pic32mx/4.8.3/../../../../pic32mx/lib\libpic32.a(simple-tlb-refill-exception.o)
 .bss           0x00000000        0x0 c:/program files (x86)/microchip/xc32/v1.40/bin/bin/../../lib/gcc/pic32mx/4.8.3/../../../../pic32mx/lib\libpic32.a(simple-tlb-refill-exception.o)
 .reginfo       0x00000000       0x18 c:/program files (x86)/microchip/xc32/v1.40/bin/bin/../../lib/gcc/pic32mx/4.8.3/../../../../pic32mx/lib\libpic32.a(simple-tlb-refill-exception.o)
 .text          0x00000000        0x0 c:/program files (x86)/microchip/xc32/v1.40/bin/bin/../../lib/gcc/pic32mx/4.8.3/../../../../pic32mx/lib\libpic32.a(defaultinterrupt.o)
 .data          0x00000000        0x0 c:/program files (x86)/microchip/xc32/v1.40/bin/bin/../../lib/gcc/pic32mx/4.8.3/../../../../pic32mx/lib\libpic32.a(defaultinterrupt.o)
 .bss           0x00000000        0x0 c:/program files (x86)/microchip/xc32/v1.40/bin/bin/../../lib/gcc/pic32mx/4.8.3/../../../../pic32mx/lib\libpic32.a(defaultinterrupt.o)
 .reginfo       0x00000000       0x18 c:/program files (x86)/microchip/xc32/v1.40/bin/bin/../../lib/gcc/pic32mx/4.8.3/../../../../pic32mx/lib\libpic32.a(defaultinterrupt.o)
 .text          0x00000000        0x0 c:/program files (x86)/microchip/xc32/v1.40/bin/bin/../../lib/gcc/pic32mx/4.8.3/../../../../pic32mx/lib\libpic32.a(default-cache-err-exception-handler.o)
 .data          0x00000000        0x0 c:/program files (x86)/microchip/xc32/v1.40/bin/bin/../../lib/gcc/pic32mx/4.8.3/../../../../pic32mx/lib\libpic32.a(default-cache-err-exception-handler.o)
 .bss           0x00000000        0x0 c:/program files (x86)/microchip/xc32/v1.40/bin/bin/../../lib/gcc/pic32mx/4.8.3/../../../../pic32mx/lib\libpic32.a(default-cache-err-exception-handler.o)
 .reginfo       0x00000000       0x18 c:/program files (x86)/microchip/xc32/v1.40/bin/bin/../../lib/gcc/pic32mx/4.8.3/../../../../pic32mx/lib\libpic32.a(default-cache-err-exception-handler.o)
 .text          0x00000000        0x0 c:/program files (x86)/microchip/xc32/v1.40/bin/bin/../../lib/gcc/pic32mx/4.8.3/../../../../pic32mx/lib\libpic32.a(default-simple-tlb-refill-exception-handler.o)
 .data          0x00000000        0x0 c:/program files (x86)/microchip/xc32/v1.40/bin/bin/../../lib/gcc/pic32mx/4.8.3/../../../../pic32mx/lib\libpic32.a(default-simple-tlb-refill-exception-handler.o)
 .bss           0x00000000        0x0 c:/program files (x86)/microchip/xc32/v1.40/bin/bin/../../lib/gcc/pic32mx/4.8.3/../../../../pic32mx/lib\libpic32.a(default-simple-tlb-refill-exception-handler.o)
 .reginfo       0x00000000       0x18 c:/program files (x86)/microchip/xc32/v1.40/bin/bin/../../lib/gcc/pic32mx/4.8.3/../../../../pic32mx/lib\libpic32.a(default-simple-tlb-refill-exception-handler.o)
 .text          0x00000000        0x0 c:/program files (x86)/microchip/xc32/v1.40/bin/bin/../../lib/gcc/pic32mx/4.8.3/../../../../pic32mx/lib\libm.a(fp32div.o)
 .data          0x00000000        0x0 c:/program files (x86)/microchip/xc32/v1.40/bin/bin/../../lib/gcc/pic32mx/4.8.3/../../../../pic32mx/lib\libm.a(fp32div.o)
 .bss           0x00000000        0x0 c:/program files (x86)/microchip/xc32/v1.40/bin/bin/../../lib/gcc/pic32mx/4.8.3/../../../../pic32mx/lib\libm.a(fp32div.o)
 .reginfo       0x00000000       0x18 c:/program files (x86)/microchip/xc32/v1.40/bin/bin/../../lib/gcc/pic32mx/4.8.3/../../../../pic32mx/lib\libm.a(fp32div.o)
 .text.fp32div  0x00000000      0x230 c:/program files (x86)/microchip/xc32/v1.40/bin/bin/../../lib/gcc/pic32mx/4.8.3/../../../../pic32mx/lib\libm.a(fp32div.o)
 .text          0x00000000        0x0 c:/program files (x86)/microchip/xc32/v1.40/bin/bin/../../lib/gcc/pic32mx/4.8.3/../../../../pic32mx/lib\libm.a(fp32mul.o)
 .data          0x00000000        0x0 c:/program files (x86)/microchip/xc32/v1.40/bin/bin/../../lib/gcc/pic32mx/4.8.3/../../../../pic32mx/lib\libm.a(fp32mul.o)
 .bss           0x00000000        0x0 c:/program files (x86)/microchip/xc32/v1.40/bin/bin/../../lib/gcc/pic32mx/4.8.3/../../../../pic32mx/lib\libm.a(fp32mul.o)
 .reginfo       0x00000000       0x18 c:/program files (x86)/microchip/xc32/v1.40/bin/bin/../../lib/gcc/pic32mx/4.8.3/../../../../pic32mx/lib\libm.a(fp32mul.o)
 .text          0x00000000        0x0 c:/program files (x86)/microchip/xc32/v1.40/bin/bin/../../lib/gcc/pic32mx/4.8.3/../../../../pic32mx/lib\libm.a(fp32subadd.o)
 .data          0x00000000        0x0 c:/program files (x86)/microchip/xc32/v1.40/bin/bin/../../lib/gcc/pic32mx/4.8.3/../../../../pic32mx/lib\libm.a(fp32subadd.o)
 .bss           0x00000000        0x0 c:/program files (x86)/microchip/xc32/v1.40/bin/bin/../../lib/gcc/pic32mx/4.8.3/../../../../pic32mx/lib\libm.a(fp32subadd.o)
 .reginfo       0x00000000       0x18 c:/program files (x86)/microchip/xc32/v1.40/bin/bin/../../lib/gcc/pic32mx/4.8.3/../../../../pic32mx/lib\libm.a(fp32subadd.o)
 .text          0x00000000        0x0 c:/program files (x86)/microchip/xc32/v1.40/bin/bin/../../lib/gcc/pic32mx/4.8.3/../../../../pic32mx/lib\libm.a(fptoul.o)
 .data          0x00000000        0x0 c:/program files (x86)/microchip/xc32/v1.40/bin/bin/../../lib/gcc/pic32mx/4.8.3/../../../../pic32mx/lib\libm.a(fptoul.o)
 .bss           0x00000000        0x0 c:/program files (x86)/microchip/xc32/v1.40/bin/bin/../../lib/gcc/pic32mx/4.8.3/../../../../pic32mx/lib\libm.a(fptoul.o)
 .reginfo       0x00000000       0x18 c:/program files (x86)/microchip/xc32/v1.40/bin/bin/../../lib/gcc/pic32mx/4.8.3/../../../../pic32mx/lib\libm.a(fptoul.o)
 .text          0x00000000        0x0 c:/program files (x86)/microchip/xc32/v1.40/bin/bin/../../lib/gcc/pic32mx/4.8.3/../../../../pic32mx/lib\libm.a(sitofp.o)
 .data          0x00000000        0x0 c:/program files (x86)/microchip/xc32/v1.40/bin/bin/../../lib/gcc/pic32mx/4.8.3/../../../../pic32mx/lib\libm.a(sitofp.o)
 .bss           0x00000000        0x0 c:/program files (x86)/microchip/xc32/v1.40/bin/bin/../../lib/gcc/pic32mx/4.8.3/../../../../pic32mx/lib\libm.a(sitofp.o)
 .reginfo       0x00000000       0x18 c:/program files (x86)/microchip/xc32/v1.40/bin/bin/../../lib/gcc/pic32mx/4.8.3/../../../../pic32mx/lib\libm.a(sitofp.o)

Memory Configuration

Name             Origin             Length             Attributes
kseg0_program_mem 0x9d000000         0x00200000         xr
kseg0_boot_mem   0x9fc004b0         0x00000000
kseg1_boot_mem   0xbfc00000         0x00000480
kseg1_boot_mem_4B0 0xbfc004b0         0x0000fa50
config_BFC0FF40  0xbfc0ff40         0x00000004
config_BFC0FF44  0xbfc0ff44         0x00000004
config_BFC0FF48  0xbfc0ff48         0x00000004
config_BFC0FF4C  0xbfc0ff4c         0x00000004
config_BFC0FF50  0xbfc0ff50         0x00000004
config_BFC0FF54  0xbfc0ff54         0x00000004
config_BFC0FF58  0xbfc0ff58         0x00000004
config_BFC0FF5C  0xbfc0ff5c         0x00000004
config_BFC0FF60  0xbfc0ff60         0x00000004
config_BFC0FF64  0xbfc0ff64         0x00000004
config_BFC0FF68  0xbfc0ff68         0x00000004
config_BFC0FF6C  0xbfc0ff6c         0x00000004
config_BFC0FF70  0xbfc0ff70         0x00000004
config_BFC0FF74  0xbfc0ff74         0x00000004
config_BFC0FF78  0xbfc0ff78         0x00000004
config_BFC0FF7C  0xbfc0ff7c         0x00000004
config_BFC0FFC0  0xbfc0ffc0         0x00000004
config_BFC0FFC4  0xbfc0ffc4         0x00000004
config_BFC0FFC8  0xbfc0ffc8         0x00000004
config_BFC0FFCC  0xbfc0ffcc         0x00000004
config_BFC0FFD0  0xbfc0ffd0         0x00000004
config_BFC0FFD4  0xbfc0ffd4         0x00000004
config_BFC0FFD8  0xbfc0ffd8         0x00000004
config_BFC0FFDC  0xbfc0ffdc         0x00000004
config_BFC0FFE0  0xbfc0ffe0         0x00000004
config_BFC0FFE4  0xbfc0ffe4         0x00000004
config_BFC0FFE8  0xbfc0ffe8         0x00000004
config_BFC0FFEC  0xbfc0ffec         0x00000004
config_BFC0FFF0  0xbfc0fff0         0x00000004
config_BFC0FFF4  0xbfc0fff4         0x00000004
config_BFC0FFF8  0xbfc0fff8         0x00000004
config_BFC0FFFC  0xbfc0fffc         0x00000004
lowerbootaliaslastpage 0xbfc10000         0x00004000
upperbootalias   0xbfc20000         0x0000ff00
config_BFC2FF40  0xbfc2ff40         0x00000004
config_BFC2FF44  0xbfc2ff44         0x00000004
config_BFC2FF48  0xbfc2ff48         0x00000004
config_BFC2FF4C  0xbfc2ff4c         0x00000004
config_BFC2FF50  0xbfc2ff50         0x00000004
config_BFC2FF54  0xbfc2ff54         0x00000004
config_BFC2FF58  0xbfc2ff58         0x00000004
config_BFC2FF5C  0xbfc2ff5c         0x00000004
config_BFC2FF60  0xbfc2ff60         0x00000004
config_BFC2FF64  0xbfc2ff64         0x00000004
config_BFC2FF68  0xbfc2ff68         0x00000004
config_BFC2FF6C  0xbfc2ff6c         0x00000004
config_BFC2FF70  0xbfc2ff70         0x00000004
config_BFC2FF74  0xbfc2ff74         0x00000004
config_BFC2FF78  0xbfc2ff78         0x00000004
config_BFC2FF7C  0xbfc2ff7c         0x00000004
config_BFC2FFC0  0xbfc2ffc0         0x00000004
config_BFC2FFC4  0xbfc2ffc4         0x00000004
config_BFC2FFC8  0xbfc2ffc8         0x00000004
config_BFC2FFCC  0xbfc2ffcc         0x00000004
config_BFC2FFD0  0xbfc2ffd0         0x00000004
config_BFC2FFD4  0xbfc2ffd4         0x00000004
config_BFC2FFD8  0xbfc2ffd8         0x00000004
config_BFC2FFDC  0xbfc2ffdc         0x00000004
config_BFC2FFE0  0xbfc2ffe0         0x00000004
config_BFC2FFE4  0xbfc2ffe4         0x00000004
config_BFC2FFE8  0xbfc2ffe8         0x00000004
config_BFC2FFEC  0xbfc2ffec         0x00000004
config_BFC2FFF0  0xbfc2fff0         0x00000004
config_BFC2FFF4  0xbfc2fff4         0x00000004
config_BFC2FFF8  0xbfc2fff8         0x00000004
config_BFC2FFFC  0xbfc2fffc         0x00000004
upperbootaliaslastpage 0xbfc30000         0x00004000
boot1            0xbfc40000         0x0000ff00
config_BFC4FF40  0xbfc4ff40         0x00000004
config_BFC4FF44  0xbfc4ff44         0x00000004
config_BFC4FF48  0xbfc4ff48         0x00000004
config_BFC4FF4C  0xbfc4ff4c         0x00000004
config_BFC4FF50  0xbfc4ff50         0x00000004
config_BFC4FF54  0xbfc4ff54         0x00000004
config_BFC4FF58  0xbfc4ff58         0x00000004
config_BFC4FF5C  0xbfc4ff5c         0x00000004
config_BFC4FF60  0xbfc4ff60         0x00000004
config_BFC4FF64  0xbfc4ff64         0x00000004
config_BFC4FF68  0xbfc4ff68         0x00000004
config_BFC4FF6C  0xbfc4ff6c         0x00000004
config_BFC4FF70  0xbfc4ff70         0x00000004
config_BFC4FF74  0xbfc4ff74         0x00000004
config_BFC4FF78  0xbfc4ff78         0x00000004
config_BFC4FF7C  0xbfc4ff7c         0x00000004
config_BFC4FFC0  0xbfc4ffc0         0x00000004
config_BFC4FFC4  0xbfc4ffc4         0x00000004
config_BFC4FFC8  0xbfc4ffc8         0x00000004
config_BFC4FFCC  0xbfc4ffcc         0x00000004
config_BFC4FFD0  0xbfc4ffd0         0x00000004
config_BFC4FFD4  0xbfc4ffd4         0x00000004
config_BFC4FFD8  0xbfc4ffd8         0x00000004
config_BFC4FFDC  0xbfc4ffdc         0x00000004
config_BFC4FFE0  0xbfc4ffe0         0x00000004
config_BFC4FFE4  0xbfc4ffe4         0x00000004
config_BFC4FFE8  0xbfc4ffe8         0x00000004
config_BFC4FFEC  0xbfc4ffec         0x00000004
config_BFC4FFF0  0xbfc4fff0         0x00000004
config_BFC4FFF4  0xbfc4fff4         0x00000004
config_BFC4FFF8  0xbfc4fff8         0x00000004
config_BFC4FFFC  0xbfc4fffc         0x00000004
boot1lastpage    0xbfc50000         0x00004000
config_BFC54000  0xbfc54000         0x00000004
config_BFC54004  0xbfc54004         0x00000004
config_BFC54008  0xbfc54008         0x00000004
config_BFC5400C  0xbfc5400c         0x00000004
config_BFC54010  0xbfc54010         0x00000004
config_BFC54020  0xbfc54020         0x00000004
config_BFC54024  0xbfc54024         0x00000004
boot2            0xbfc60000         0x0000ff00
config_BFC6FF40  0xbfc6ff40         0x00000004
config_BFC6FF44  0xbfc6ff44         0x00000004
config_BFC6FF48  0xbfc6ff48         0x00000004
config_BFC6FF4C  0xbfc6ff4c         0x00000004
config_BFC6FF50  0xbfc6ff50         0x00000004
config_BFC6FF54  0xbfc6ff54         0x00000004
config_BFC6FF58  0xbfc6ff58         0x00000004
config_BFC6FF5C  0xbfc6ff5c         0x00000004
config_BFC6FF60  0xbfc6ff60         0x00000004
config_BFC6FF64  0xbfc6ff64         0x00000004
config_BFC6FF68  0xbfc6ff68         0x00000004
config_BFC6FF6C  0xbfc6ff6c         0x00000004
config_BFC6FF70  0xbfc6ff70         0x00000004
config_BFC6FF74  0xbfc6ff74         0x00000004
config_BFC6FF78  0xbfc6ff78         0x00000004
config_BFC6FF7C  0xbfc6ff7c         0x00000004
config_BFC6FFC0  0xbfc6ffc0         0x00000004
config_BFC6FFC4  0xbfc6ffc4         0x00000004
config_BFC6FFC8  0xbfc6ffc8         0x00000004
config_BFC6FFCC  0xbfc6ffcc         0x00000004
config_BFC6FFD0  0xbfc6ffd0         0x00000004
config_BFC6FFD4  0xbfc6ffd4         0x00000004
config_BFC6FFD8  0xbfc6ffd8         0x00000004
config_BFC6FFDC  0xbfc6ffdc         0x00000004
config_BFC6FFE0  0xbfc6ffe0         0x00000004
config_BFC6FFE4  0xbfc6ffe4         0x00000004
config_BFC6FFE8  0xbfc6ffe8         0x00000004
config_BFC6FFEC  0xbfc6ffec         0x00000004
config_BFC6FFF0  0xbfc6fff0         0x00000004
config_BFC6FFF4  0xbfc6fff4         0x00000004
config_BFC6FFF8  0xbfc6fff8         0x00000004
config_BFC6FFFC  0xbfc6fffc         0x00000004
boot2lastpage    0xbfc70000         0x00004000
kseg0_data_mem   0x80000000         0x00080000         w !x
sfrs             0xbf800000         0x00100000
configsfrs_BFC0FF40 0xbfc0ff40         0x00000040
configsfrs_BFC0FFC0 0xbfc0ffc0         0x00000040
configsfrs_BFC2FF40 0xbfc2ff40         0x00000040
configsfrs_BFC2FFC0 0xbfc2ffc0         0x00000040
configsfrs_BFC4FF40 0xbfc4ff40         0x00000040
configsfrs_BFC4FFC0 0xbfc4ffc0         0x00000040
configsfrs_BFC54000 0xbfc54000         0x00000014
configsfrs_BFC54020 0xbfc54020         0x00000008
configsfrs_BFC6FF40 0xbfc6ff40         0x00000040
configsfrs_BFC6FFC0 0xbfc6ffc0         0x00000040
kseg2_ebi_data_mem 0xc0000000         0x04000000
kseg2_sqi_data_mem 0xd0000000         0x04000000
kseg3_ebi_data_mem 0xe0000000         0x04000000
kseg3_sqi_data_mem 0xf0000000         0x04000000
*default*        0x00000000         0xffffffff

Linker script and memory map

LOAD c:/program files (x86)/microchip/xc32/v1.40/bin/bin/../../lib/gcc/pic32mx/4.8.3/../../../../pic32mx/lib/./proc/32MZ2048ECM100/crt0_mips32r2.o
LOAD c:/program files (x86)/microchip/xc32/v1.40/bin/bin/../../lib/gcc/pic32mx/4.8.3/../../../../pic32mx/lib\debug-exception-return.o
LOAD build/boostv1/production/_ext/2140773153/drv_i2c_static.o
LOAD build/boostv1/production/_ext/1464490010/drv_pmp_static.o
LOAD build/boostv1/production/_ext/1526535504/sys_clk_static.o
LOAD build/boostv1/production/_ext/385613664/sys_ports_static.o
LOAD build/boostv1/production/_ext/208863783/system_init.o
LOAD build/boostv1/production/_ext/208863783/system_interrupt.o
LOAD build/boostv1/production/_ext/208863783/system_exceptions.o
LOAD build/boostv1/production/_ext/208863783/system_tasks.o
LOAD build/boostv1/production/_ext/1360937237/app.o
LOAD build/boostv1/production/_ext/1360937237/main.o
LOAD build/boostv1/production/_ext/1360937237/delay.o
LOAD build/boostv1/production/_ext/1390999610/drv_gfx_lcc_int_pe.o
LOAD build/boostv1/production/_ext/185269848/drv_tmr.o
LOAD build/boostv1/production/_ext/1945137225/drv_adc10bit.o
LOAD build/boostv1/production/_ext/386020355/gfx.o
LOAD build/boostv1/production/_ext/386020355/gfx_primitive.o
LOAD build/boostv1/production/_ext/1271179505/sys_devcon.o
LOAD build/boostv1/production/_ext/1271179505/sys_devcon_pic32mz.o
LOAD build/boostv1/production/_ext/1271179505/sys_devcon_cache_pic32mz.o
LOAD build/boostv1/production/_ext/65930274/sys_dma.o
LOAD build/boostv1/production/_ext/122796885/sys_int_pic32.o
LOAD build/boostv1/production/_ext/77319752/sys_ports.o
LOAD build/boostv1/production/_ext/1264926591/sys_tmr.o
LOAD build/boostv1/production/_ext/846513563/sys_touch.o
LOAD ..\..\..\..\bin\framework\peripheral\PIC32MZ2048ECM100_peripherals.a
                0x00000001                __MPLAB_BUILD = 0x1
                0x00001000                _min_heap_size = 0x1000
LOAD c:/program files (x86)/microchip/xc32/v1.40/bin/bin/../../lib/gcc/pic32mx/4.8.3/../../../../pic32mx/lib/./proc/32MZ2048ECM100\default_isr_vectors.o
LOAD c:/program files (x86)/microchip/xc32/v1.40/bin/bin/../../lib/gcc/pic32mx/4.8.3/../../../../pic32mx/lib\pic32_software_reset.o
                0x00000400                PROVIDE (_min_stack_size, 0x400)
LOAD c:/program files (x86)/microchip/xc32/v1.40/bin/bin/../../lib/gcc/pic32mx/4.8.3/../../../../pic32mx/lib/./proc/32MZ2048ECM100\processor.o
START GROUP
LOAD libmchp_peripheral.a
END GROUP
START GROUP
LOAD libmchp_peripheral_32MZ2048ECM100.a
END GROUP
START GROUP
LOAD c:/program files (x86)/microchip/xc32/v1.40/bin/bin/../../lib/gcc/pic32mx/4.8.3/../../../../pic32mx/lib/./proc/32MZ2048ECM100\vector_offset_init.o
END GROUP
                0x00000001                PROVIDE (_vector_spacing, 0x1)
                0x9d000000                PROVIDE (_ebase_address, 0x9d000000)
                0xbfc00000                _RESET_ADDR = 0xbfc00000
                0xbfc00380                _BEV_EXCPT_ADDR = 0xbfc00380
                0xbfc00480                _DBG_EXCPT_ADDR = 0xbfc00480
                0x9d000000                _SIMPLE_TLB_REFILL_EXCPT_ADDR = (_ebase_address + 0x0)
                0x9d000100                _CACHE_ERR_EXCPT_ADDR = (_ebase_address + 0x100)
                0x9d000180                _GEN_EXCPT_ADDR = (_ebase_address + 0x180)

.config_BFC0FF40
 *(.config_BFC0FF40)

.config_BFC0FF44
 *(.config_BFC0FF44)

.config_BFC0FF48
 *(.config_BFC0FF48)

.config_BFC0FF4C
 *(.config_BFC0FF4C)

.config_BFC0FF50
 *(.config_BFC0FF50)

.config_BFC0FF54
 *(.config_BFC0FF54)

.config_BFC0FF58
 *(.config_BFC0FF58)

.config_BFC0FF5C
 *(.config_BFC0FF5C)

.config_BFC0FF60
 *(.config_BFC0FF60)

.config_BFC0FF64
 *(.config_BFC0FF64)

.config_BFC0FF68
 *(.config_BFC0FF68)

.config_BFC0FF6C
 *(.config_BFC0FF6C)

.config_BFC0FF70
 *(.config_BFC0FF70)

.config_BFC0FF74
 *(.config_BFC0FF74)

.config_BFC0FF78
 *(.config_BFC0FF78)

.config_BFC0FF7C
 *(.config_BFC0FF7C)

.config_BFC0FFC0
                0xbfc0ffc0        0x4
 *(.config_BFC0FFC0)
 .config_BFC0FFC0
                0xbfc0ffc0        0x4 build/boostv1/production/_ext/208863783/system_init.o

.config_BFC0FFC4
                0xbfc0ffc4        0x4
 *(.config_BFC0FFC4)
 .config_BFC0FFC4
                0xbfc0ffc4        0x4 build/boostv1/production/_ext/208863783/system_init.o

.config_BFC0FFC8
                0xbfc0ffc8        0x4
 *(.config_BFC0FFC8)
 .config_BFC0FFC8
                0xbfc0ffc8        0x4 build/boostv1/production/_ext/208863783/system_init.o

.config_BFC0FFCC
                0xbfc0ffcc        0x4
 *(.config_BFC0FFCC)
 .config_BFC0FFCC
                0xbfc0ffcc        0x4 build/boostv1/production/_ext/208863783/system_init.o

.config_BFC0FFD0
 *(.config_BFC0FFD0)

.config_BFC0FFD4
 *(.config_BFC0FFD4)

.config_BFC0FFD8
 *(.config_BFC0FFD8)

.config_BFC0FFDC
                0xbfc0ffdc        0x4
 *(.config_BFC0FFDC)
 .config_BFC0FFDC
                0xbfc0ffdc        0x4 build/boostv1/production/_ext/208863783/system_init.o

.config_BFC0FFE0
 *(.config_BFC0FFE0)

.config_BFC0FFE4
 *(.config_BFC0FFE4)

.config_BFC0FFE8
 *(.config_BFC0FFE8)

.config_BFC0FFEC
 *(.config_BFC0FFEC)

.config_BFC0FFF0
 *(.config_BFC0FFF0)

.config_BFC0FFF4
 *(.config_BFC0FFF4)

.config_BFC0FFF8
 *(.config_BFC0FFF8)

.config_BFC0FFFC
                0xbfc0fffc        0x4
 *(.config_BFC0FFFC)
 .config_BFC0FFFC
                0xbfc0fffc        0x4 build/boostv1/production/_ext/208863783/system_init.o

.config_BFC2FF40
 *(.config_BFC2FF40)

.config_BFC2FF44
 *(.config_BFC2FF44)

.config_BFC2FF48
 *(.config_BFC2FF48)

.config_BFC2FF4C
 *(.config_BFC2FF4C)

.config_BFC2FF50
 *(.config_BFC2FF50)

.config_BFC2FF54
 *(.config_BFC2FF54)

.config_BFC2FF58
 *(.config_BFC2FF58)

.config_BFC2FF5C
 *(.config_BFC2FF5C)

.config_BFC2FF60
 *(.config_BFC2FF60)

.config_BFC2FF64
 *(.config_BFC2FF64)

.config_BFC2FF68
 *(.config_BFC2FF68)

.config_BFC2FF6C
 *(.config_BFC2FF6C)

.config_BFC2FF70
 *(.config_BFC2FF70)

.config_BFC2FF74
 *(.config_BFC2FF74)

.config_BFC2FF78
 *(.config_BFC2FF78)

.config_BFC2FF7C
 *(.config_BFC2FF7C)

.config_BFC2FFC0
 *(.config_BFC2FFC0)

.config_BFC2FFC4
 *(.config_BFC2FFC4)

.config_BFC2FFC8
 *(.config_BFC2FFC8)

.config_BFC2FFCC
 *(.config_BFC2FFCC)

.config_BFC2FFD0
 *(.config_BFC2FFD0)

.config_BFC2FFD4
 *(.config_BFC2FFD4)

.config_BFC2FFD8
 *(.config_BFC2FFD8)

.config_BFC2FFDC
 *(.config_BFC2FFDC)

.config_BFC2FFE0
 *(.config_BFC2FFE0)

.config_BFC2FFE4
 *(.config_BFC2FFE4)

.config_BFC2FFE8
 *(.config_BFC2FFE8)

.config_BFC2FFEC
 *(.config_BFC2FFEC)

.config_BFC2FFF0
 *(.config_BFC2FFF0)

.config_BFC2FFF4
 *(.config_BFC2FFF4)

.config_BFC2FFF8
 *(.config_BFC2FFF8)

.config_BFC2FFFC
 *(.config_BFC2FFFC)

.config_BFC4FF40
 *(.config_BFC4FF40)

.config_BFC4FF44
 *(.config_BFC4FF44)

.config_BFC4FF48
 *(.config_BFC4FF48)

.config_BFC4FF4C
 *(.config_BFC4FF4C)

.config_BFC4FF50
 *(.config_BFC4FF50)

.config_BFC4FF54
 *(.config_BFC4FF54)

.config_BFC4FF58
 *(.config_BFC4FF58)

.config_BFC4FF5C
 *(.config_BFC4FF5C)

.config_BFC4FF60
 *(.config_BFC4FF60)

.config_BFC4FF64
 *(.config_BFC4FF64)

.config_BFC4FF68
 *(.config_BFC4FF68)

.config_BFC4FF6C
 *(.config_BFC4FF6C)

.config_BFC4FF70
 *(.config_BFC4FF70)

.config_BFC4FF74
 *(.config_BFC4FF74)

.config_BFC4FF78
 *(.config_BFC4FF78)

.config_BFC4FF7C
 *(.config_BFC4FF7C)

.config_BFC4FFC0
 *(.config_BFC4FFC0)

.config_BFC4FFC4
 *(.config_BFC4FFC4)

.config_BFC4FFC8
 *(.config_BFC4FFC8)

.config_BFC4FFCC
 *(.config_BFC4FFCC)

.config_BFC4FFD0
 *(.config_BFC4FFD0)

.config_BFC4FFD4
 *(.config_BFC4FFD4)

.config_BFC4FFD8
 *(.config_BFC4FFD8)

.config_BFC4FFDC
 *(.config_BFC4FFDC)

.config_BFC4FFE0
 *(.config_BFC4FFE0)

.config_BFC4FFE4
 *(.config_BFC4FFE4)

.config_BFC4FFE8
 *(.config_BFC4FFE8)

.config_BFC4FFEC
 *(.config_BFC4FFEC)

.config_BFC4FFF0
 *(.config_BFC4FFF0)

.config_BFC4FFF4
 *(.config_BFC4FFF4)

.config_BFC4FFF8
 *(.config_BFC4FFF8)

.config_BFC4FFFC
 *(.config_BFC4FFFC)

.config_BFC54000
 *(.config_BFC54000)

.config_BFC54004
 *(.config_BFC54004)

.config_BFC54008
 *(.config_BFC54008)

.config_BFC5400C
 *(.config_BFC5400C)

.config_BFC54010
 *(.config_BFC54010)

.config_BFC54020
 *(.config_BFC54020)

.config_BFC54024
 *(.config_BFC54024)

.config_BFC6FF40
 *(.config_BFC6FF40)

.config_BFC6FF44
 *(.config_BFC6FF44)

.config_BFC6FF48
 *(.config_BFC6FF48)

.config_BFC6FF4C
 *(.config_BFC6FF4C)

.config_BFC6FF50
 *(.config_BFC6FF50)

.config_BFC6FF54
 *(.config_BFC6FF54)

.config_BFC6FF58
 *(.config_BFC6FF58)

.config_BFC6FF5C
 *(.config_BFC6FF5C)

.config_BFC6FF60
 *(.config_BFC6FF60)

.config_BFC6FF64
 *(.config_BFC6FF64)

.config_BFC6FF68
 *(.config_BFC6FF68)

.config_BFC6FF6C
 *(.config_BFC6FF6C)

.config_BFC6FF70
 *(.config_BFC6FF70)

.config_BFC6FF74
 *(.config_BFC6FF74)

.config_BFC6FF78
 *(.config_BFC6FF78)

.config_BFC6FF7C
 *(.config_BFC6FF7C)

.config_BFC6FFC0
 *(.config_BFC6FFC0)

.config_BFC6FFC4
 *(.config_BFC6FFC4)

.config_BFC6FFC8
 *(.config_BFC6FFC8)

.config_BFC6FFCC
 *(.config_BFC6FFCC)

.config_BFC6FFD0
 *(.config_BFC6FFD0)

.config_BFC6FFD4
 *(.config_BFC6FFD4)

.config_BFC6FFD8
 *(.config_BFC6FFD8)

.config_BFC6FFDC
 *(.config_BFC6FFDC)

.config_BFC6FFE0
 *(.config_BFC6FFE0)

.config_BFC6FFE4
 *(.config_BFC6FFE4)

.config_BFC6FFE8
 *(.config_BFC6FFE8)

.config_BFC6FFEC
 *(.config_BFC6FFEC)

.config_BFC6FFF0
 *(.config_BFC6FFF0)

.config_BFC6FFF4
 *(.config_BFC6FFF4)

.config_BFC6FFF8
 *(.config_BFC6FFF8)

.config_BFC6FFFC
 *(.config_BFC6FFFC)

.reset          0xbfc00000      0x1fc
 *(.reset)
 .reset         0xbfc00000       0x18 c:/program files (x86)/microchip/xc32/v1.40/bin/bin/../../lib/gcc/pic32mx/4.8.3/../../../../pic32mx/lib/./proc/32MZ2048ECM100/crt0_mips32r2.o
                0xbfc00000                _reset
 *(.reset.startup)
 .reset.startup
                0xbfc00018      0x1e4 c:/program files (x86)/microchip/xc32/v1.40/bin/bin/../../lib/gcc/pic32mx/4.8.3/../../../../pic32mx/lib/./proc/32MZ2048ECM100/crt0_mips32r2.o

.bev_excpt      0xbfc00380       0x10
 *(.bev_handler)
 .bev_handler   0xbfc00380       0x10 c:/program files (x86)/microchip/xc32/v1.40/bin/bin/../../lib/gcc/pic32mx/4.8.3/../../../../pic32mx/lib/./proc/32MZ2048ECM100/crt0_mips32r2.o

.cache_init     0xbfc004b0      0x19c
 *(.cache_init)
 *(.cache_init.*)
 .cache_init.cache
                0xbfc004b0       0xc0 c:/program files (x86)/microchip/xc32/v1.40/bin/bin/../../lib/gcc/pic32mx/4.8.3/../../../../pic32mx/lib\libpic32.a(pic32_init_cache.o)
 .cache_init.pic32_init_cache
                0xbfc00570       0xdc c:/program files (x86)/microchip/xc32/v1.40/bin/bin/../../lib/gcc/pic32mx/4.8.3/../../../../pic32mx/lib\libpic32.a(pic32_init_cache.o)
                0xbfc00570                __pic32_init_cache

.simple_tlb_refill_excpt
                0x9d000000       0x10
 *(.simple_tlb_refill_vector)
 .simple_tlb_refill_vector
                0x9d000000       0x10 c:/program files (x86)/microchip/xc32/v1.40/bin/bin/../../lib/gcc/pic32mx/4.8.3/../../../../pic32mx/lib/./proc/32MZ2048ECM100/crt0_mips32r2.o

.cache_err_excpt
                0x9d000100       0x10
 *(.cache_err_vector)
 .cache_err_vector
                0x9d000100       0x10 c:/program files (x86)/microchip/xc32/v1.40/bin/bin/../../lib/gcc/pic32mx/4.8.3/../../../../pic32mx/lib/./proc/32MZ2048ECM100/crt0_mips32r2.o

.app_excpt      0x9d000180       0x10
 *(.gen_handler)
 .gen_handler   0x9d000180       0x10 c:/program files (x86)/microchip/xc32/v1.40/bin/bin/../../lib/gcc/pic32mx/4.8.3/../../../../pic32mx/lib/./proc/32MZ2048ECM100/crt0_mips32r2.o

.vectors        0x9d000200       0x58
                0x00000210                __vector_offset_0 = DEFINED (__vector_dispatch_0)?(. - _ebase_address):__vector_offset_default
 *(.vector_0)
                0x00000210                __vector_offset_1 = DEFINED (__vector_dispatch_1)?(. - _ebase_address):__vector_offset_default
 *(.vector_1)
                0x00000210                __vector_offset_2 = DEFINED (__vector_dispatch_2)?(. - _ebase_address):__vector_offset_default
 *(.vector_2)
                0x00000210                __vector_offset_3 = DEFINED (__vector_dispatch_3)?(. - _ebase_address):__vector_offset_default
 *(.vector_3)
                0x00000200                __vector_offset_4 = DEFINED (__vector_dispatch_4)?(. - _ebase_address):__vector_offset_default
 *(.vector_4)
 .vector_4      0x9d000200        0x8 build/boostv1/production/_ext/208863783/system_interrupt.o
                0x9d000200                __vector_dispatch_4
                0x00000210                __vector_offset_5 = DEFINED (__vector_dispatch_5)?(. - _ebase_address):__vector_offset_default
 *(.vector_5)
                0x00000210                __vector_offset_6 = DEFINED (__vector_dispatch_6)?(. - _ebase_address):__vector_offset_default
 *(.vector_6)
                0x00000210                __vector_offset_7 = DEFINED (__vector_dispatch_7)?(. - _ebase_address):__vector_offset_default
 *(.vector_7)
                0x00000210                __vector_offset_8 = DEFINED (__vector_dispatch_8)?(. - _ebase_address):__vector_offset_default
 *(.vector_8)
                0x00000210                __vector_offset_9 = DEFINED (__vector_dispatch_9)?(. - _ebase_address):__vector_offset_default
 *(.vector_9)
                0x00000210                __vector_offset_10 = DEFINED (__vector_dispatch_10)?(. - _ebase_address):__vector_offset_default
 *(.vector_10)
                0x00000210                __vector_offset_11 = DEFINED (__vector_dispatch_11)?(. - _ebase_address):__vector_offset_default
 *(.vector_11)
                0x00000210                __vector_offset_12 = DEFINED (__vector_dispatch_12)?(. - _ebase_address):__vector_offset_default
 *(.vector_12)
                0x00000210                __vector_offset_13 = DEFINED (__vector_dispatch_13)?(. - _ebase_address):__vector_offset_default
 *(.vector_13)
                0x00000210                __vector_offset_14 = DEFINED (__vector_dispatch_14)?(. - _ebase_address):__vector_offset_default
 *(.vector_14)
                0x00000210                __vector_offset_15 = DEFINED (__vector_dispatch_15)?(. - _ebase_address):__vector_offset_default
 *(.vector_15)
                0x00000210                __vector_offset_16 = DEFINED (__vector_dispatch_16)?(. - _ebase_address):__vector_offset_default
 *(.vector_16)
                0x00000210                __vector_offset_17 = DEFINED (__vector_dispatch_17)?(. - _ebase_address):__vector_offset_default
 *(.vector_17)
                0x00000210                __vector_offset_18 = DEFINED (__vector_dispatch_18)?(. - _ebase_address):__vector_offset_default
 *(.vector_18)
                0x00000210                __vector_offset_19 = DEFINED (__vector_dispatch_19)?(. - _ebase_address):__vector_offset_default
 *(.vector_19)
                0x00000210                __vector_offset_20 = DEFINED (__vector_dispatch_20)?(. - _ebase_address):__vector_offset_default
 *(.vector_20)
                0x00000210                __vector_offset_21 = DEFINED (__vector_dispatch_21)?(. - _ebase_address):__vector_offset_default
 *(.vector_21)
                0x00000210                __vector_offset_22 = DEFINED (__vector_dispatch_22)?(. - _ebase_address):__vector_offset_default
 *(.vector_22)
                0x00000210                __vector_offset_23 = DEFINED (__vector_dispatch_23)?(. - _ebase_address):__vector_offset_default
 *(.vector_23)
                0x00000210                __vector_offset_24 = DEFINED (__vector_dispatch_24)?(. - _ebase_address):__vector_offset_default
 *(.vector_24)
                0x00000210                __vector_offset_25 = DEFINED (__vector_dispatch_25)?(. - _ebase_address):__vector_offset_default
 *(.vector_25)
                0x00000210                __vector_offset_26 = DEFINED (__vector_dispatch_26)?(. - _ebase_address):__vector_offset_default
 *(.vector_26)
                0x00000210                __vector_offset_27 = DEFINED (__vector_dispatch_27)?(. - _ebase_address):__vector_offset_default
 *(.vector_27)
                0x00000210                __vector_offset_28 = DEFINED (__vector_dispatch_28)?(. - _ebase_address):__vector_offset_default
 *(.vector_28)
                0x00000210                __vector_offset_29 = DEFINED (__vector_dispatch_29)?(. - _ebase_address):__vector_offset_default
 *(.vector_29)
                0x00000210                __vector_offset_30 = DEFINED (__vector_dispatch_30)?(. - _ebase_address):__vector_offset_default
 *(.vector_30)
                0x00000210                __vector_offset_31 = DEFINED (__vector_dispatch_31)?(. - _ebase_address):__vector_offset_default
 *(.vector_31)
                0x00000210                __vector_offset_32 = DEFINED (__vector_dispatch_32)?(. - _ebase_address):__vector_offset_default
 *(.vector_32)
                0x00000210                __vector_offset_33 = DEFINED (__vector_dispatch_33)?(. - _ebase_address):__vector_offset_default
 *(.vector_33)
                0x00000210                __vector_offset_34 = DEFINED (__vector_dispatch_34)?(. - _ebase_address):__vector_offset_default
 *(.vector_34)
                0x00000210                __vector_offset_35 = DEFINED (__vector_dispatch_35)?(. - _ebase_address):__vector_offset_default
 *(.vector_35)
                0x00000210                __vector_offset_36 = DEFINED (__vector_dispatch_36)?(. - _ebase_address):__vector_offset_default
 *(.vector_36)
                0x00000210                __vector_offset_37 = DEFINED (__vector_dispatch_37)?(. - _ebase_address):__vector_offset_default
 *(.vector_37)
                0x00000210                __vector_offset_38 = DEFINED (__vector_dispatch_38)?(. - _ebase_address):__vector_offset_default
 *(.vector_38)
                0x00000210                __vector_offset_39 = DEFINED (__vector_dispatch_39)?(. - _ebase_address):__vector_offset_default
 *(.vector_39)
                0x00000210                __vector_offset_40 = DEFINED (__vector_dispatch_40)?(. - _ebase_address):__vector_offset_default
 *(.vector_40)
                0x00000210                __vector_offset_41 = DEFINED (__vector_dispatch_41)?(. - _ebase_address):__vector_offset_default
 *(.vector_41)
                0x00000210                __vector_offset_42 = DEFINED (__vector_dispatch_42)?(. - _ebase_address):__vector_offset_default
 *(.vector_42)
                0x00000210                __vector_offset_43 = DEFINED (__vector_dispatch_43)?(. - _ebase_address):__vector_offset_default
 *(.vector_43)
                0x00000210                __vector_offset_44 = DEFINED (__vector_dispatch_44)?(. - _ebase_address):__vector_offset_default
 *(.vector_44)
                0x00000210                __vector_offset_45 = DEFINED (__vector_dispatch_45)?(. - _ebase_address):__vector_offset_default
 *(.vector_45)
                0x00000210                __vector_offset_46 = DEFINED (__vector_dispatch_46)?(. - _ebase_address):__vector_offset_default
 *(.vector_46)
                0x00000210                __vector_offset_47 = DEFINED (__vector_dispatch_47)?(. - _ebase_address):__vector_offset_default
 *(.vector_47)
                0x00000210                __vector_offset_48 = DEFINED (__vector_dispatch_48)?(. - _ebase_address):__vector_offset_default
 *(.vector_48)
                0x00000210                __vector_offset_49 = DEFINED (__vector_dispatch_49)?(. - _ebase_address):__vector_offset_default
 *(.vector_49)
                0x00000210                __vector_offset_50 = DEFINED (__vector_dispatch_50)?(. - _ebase_address):__vector_offset_default
 *(.vector_50)
                0x00000210                __vector_offset_51 = DEFINED (__vector_dispatch_51)?(. - _ebase_address):__vector_offset_default
 *(.vector_51)
                0x00000210                __vector_offset_52 = DEFINED (__vector_dispatch_52)?(. - _ebase_address):__vector_offset_default
 *(.vector_52)
                0x00000210                __vector_offset_53 = DEFINED (__vector_dispatch_53)?(. - _ebase_address):__vector_offset_default
 *(.vector_53)
                0x00000210                __vector_offset_54 = DEFINED (__vector_dispatch_54)?(. - _ebase_address):__vector_offset_default
 *(.vector_54)
                0x00000210                __vector_offset_55 = DEFINED (__vector_dispatch_55)?(. - _ebase_address):__vector_offset_default
 *(.vector_55)
                0x00000210                __vector_offset_56 = DEFINED (__vector_dispatch_56)?(. - _ebase_address):__vector_offset_default
 *(.vector_56)
                0x00000210                __vector_offset_57 = DEFINED (__vector_dispatch_57)?(. - _ebase_address):__vector_offset_default
 *(.vector_57)
                0x00000210                __vector_offset_58 = DEFINED (__vector_dispatch_58)?(. - _ebase_address):__vector_offset_default
 *(.vector_58)
                0x00000210                __vector_offset_59 = DEFINED (__vector_dispatch_59)?(. - _ebase_address):__vector_offset_default
 *(.vector_59)
                0x00000210                __vector_offset_60 = DEFINED (__vector_dispatch_60)?(. - _ebase_address):__vector_offset_default
 *(.vector_60)
                0x00000210                __vector_offset_61 = DEFINED (__vector_dispatch_61)?(. - _ebase_address):__vector_offset_default
 *(.vector_61)
                0x00000210                __vector_offset_62 = DEFINED (__vector_dispatch_62)?(. - _ebase_address):__vector_offset_default
 *(.vector_62)
                0x00000210                __vector_offset_63 = DEFINED (__vector_dispatch_63)?(. - _ebase_address):__vector_offset_default
 *(.vector_63)
                0x00000210                __vector_offset_64 = DEFINED (__vector_dispatch_64)?(. - _ebase_address):__vector_offset_default
 *(.vector_64)
                0x00000210                __vector_offset_65 = DEFINED (__vector_dispatch_65)?(. - _ebase_address):__vector_offset_default
 *(.vector_65)
                0x00000210                __vector_offset_66 = DEFINED (__vector_dispatch_66)?(. - _ebase_address):__vector_offset_default
 *(.vector_66)
                0x00000210                __vector_offset_67 = DEFINED (__vector_dispatch_67)?(. - _ebase_address):__vector_offset_default
 *(.vector_67)
                0x00000210                __vector_offset_68 = DEFINED (__vector_dispatch_68)?(. - _ebase_address):__vector_offset_default
 *(.vector_68)
                0x00000210                __vector_offset_69 = DEFINED (__vector_dispatch_69)?(. - _ebase_address):__vector_offset_default
 *(.vector_69)
                0x00000210                __vector_offset_70 = DEFINED (__vector_dispatch_70)?(. - _ebase_address):__vector_offset_default
 *(.vector_70)
                0x00000210                __vector_offset_71 = DEFINED (__vector_dispatch_71)?(. - _ebase_address):__vector_offset_default
 *(.vector_71)
                0x00000210                __vector_offset_72 = DEFINED (__vector_dispatch_72)?(. - _ebase_address):__vector_offset_default
 *(.vector_72)
                0x00000210                __vector_offset_73 = DEFINED (__vector_dispatch_73)?(. - _ebase_address):__vector_offset_default
 *(.vector_73)
                0x00000210                __vector_offset_74 = DEFINED (__vector_dispatch_74)?(. - _ebase_address):__vector_offset_default
 *(.vector_74)
                0x00000210                __vector_offset_75 = DEFINED (__vector_dispatch_75)?(. - _ebase_address):__vector_offset_default
 *(.vector_75)
                0x00000210                __vector_offset_76 = DEFINED (__vector_dispatch_76)?(. - _ebase_address):__vector_offset_default
 *(.vector_76)
                0x00000210                __vector_offset_77 = DEFINED (__vector_dispatch_77)?(. - _ebase_address):__vector_offset_default
 *(.vector_77)
                0x00000210                __vector_offset_78 = DEFINED (__vector_dispatch_78)?(. - _ebase_address):__vector_offset_default
 *(.vector_78)
                0x00000210                __vector_offset_79 = DEFINED (__vector_dispatch_79)?(. - _ebase_address):__vector_offset_default
 *(.vector_79)
                0x00000210                __vector_offset_80 = DEFINED (__vector_dispatch_80)?(. - _ebase_address):__vector_offset_default
 *(.vector_80)
                0x00000210                __vector_offset_81 = DEFINED (__vector_dispatch_81)?(. - _ebase_address):__vector_offset_default
 *(.vector_81)
                0x00000210                __vector_offset_82 = DEFINED (__vector_dispatch_82)?(. - _ebase_address):__vector_offset_default
 *(.vector_82)
                0x00000210                __vector_offset_83 = DEFINED (__vector_dispatch_83)?(. - _ebase_address):__vector_offset_default
 *(.vector_83)
                0x00000210                __vector_offset_84 = DEFINED (__vector_dispatch_84)?(. - _ebase_address):__vector_offset_default
 *(.vector_84)
                0x00000210                __vector_offset_85 = DEFINED (__vector_dispatch_85)?(. - _ebase_address):__vector_offset_default
 *(.vector_85)
                0x00000210                __vector_offset_86 = DEFINED (__vector_dispatch_86)?(. - _ebase_address):__vector_offset_default
 *(.vector_86)
                0x00000210                __vector_offset_87 = DEFINED (__vector_dispatch_87)?(. - _ebase_address):__vector_offset_default
 *(.vector_87)
                0x00000210                __vector_offset_88 = DEFINED (__vector_dispatch_88)?(. - _ebase_address):__vector_offset_default
 *(.vector_88)
                0x00000210                __vector_offset_89 = DEFINED (__vector_dispatch_89)?(. - _ebase_address):__vector_offset_default
 *(.vector_89)
                0x00000210                __vector_offset_90 = DEFINED (__vector_dispatch_90)?(. - _ebase_address):__vector_offset_default
 *(.vector_90)
                0x00000210                __vector_offset_91 = DEFINED (__vector_dispatch_91)?(. - _ebase_address):__vector_offset_default
 *(.vector_91)
                0x00000210                __vector_offset_92 = DEFINED (__vector_dispatch_92)?(. - _ebase_address):__vector_offset_default
 *(.vector_92)
                0x00000210                __vector_offset_93 = DEFINED (__vector_dispatch_93)?(. - _ebase_address):__vector_offset_default
 *(.vector_93)
                0x00000210                __vector_offset_94 = DEFINED (__vector_dispatch_94)?(. - _ebase_address):__vector_offset_default
 *(.vector_94)
                0x00000210                __vector_offset_95 = DEFINED (__vector_dispatch_95)?(. - _ebase_address):__vector_offset_default
 *(.vector_95)
                0x00000210                __vector_offset_96 = DEFINED (__vector_dispatch_96)?(. - _ebase_address):__vector_offset_default
 *(.vector_96)
                0x00000210                __vector_offset_97 = DEFINED (__vector_dispatch_97)?(. - _ebase_address):__vector_offset_default
 *(.vector_97)
                0x00000210                __vector_offset_98 = DEFINED (__vector_dispatch_98)?(. - _ebase_address):__vector_offset_default
 *(.vector_98)
                0x00000210                __vector_offset_99 = DEFINED (__vector_dispatch_99)?(. - _ebase_address):__vector_offset_default
 *(.vector_99)
                0x00000210                __vector_offset_100 = DEFINED (__vector_dispatch_100)?(. - _ebase_address):__vector_offset_default
 *(.vector_100)
                0x00000210                __vector_offset_101 = DEFINED (__vector_dispatch_101)?(. - _ebase_address):__vector_offset_default
 *(.vector_101)
                0x00000210                __vector_offset_102 = DEFINED (__vector_dispatch_102)?(. - _ebase_address):__vector_offset_default
 *(.vector_102)
                0x00000210                __vector_offset_103 = DEFINED (__vector_dispatch_103)?(. - _ebase_address):__vector_offset_default
 *(.vector_103)
                0x00000210                __vector_offset_104 = DEFINED (__vector_dispatch_104)?(. - _ebase_address):__vector_offset_default
 *(.vector_104)
                0x00000210                __vector_offset_105 = DEFINED (__vector_dispatch_105)?(. - _ebase_address):__vector_offset_default
 *(.vector_105)
                0x00000210                __vector_offset_106 = DEFINED (__vector_dispatch_106)?(. - _ebase_address):__vector_offset_default
 *(.vector_106)
                0x00000210                __vector_offset_107 = DEFINED (__vector_dispatch_107)?(. - _ebase_address):__vector_offset_default
 *(.vector_107)
                0x00000210                __vector_offset_108 = DEFINED (__vector_dispatch_108)?(. - _ebase_address):__vector_offset_default
 *(.vector_108)
                0x00000210                __vector_offset_109 = DEFINED (__vector_dispatch_109)?(. - _ebase_address):__vector_offset_default
 *(.vector_109)
                0x00000210                __vector_offset_110 = DEFINED (__vector_dispatch_110)?(. - _ebase_address):__vector_offset_default
 *(.vector_110)
                0x00000210                __vector_offset_111 = DEFINED (__vector_dispatch_111)?(. - _ebase_address):__vector_offset_default
 *(.vector_111)
                0x00000210                __vector_offset_112 = DEFINED (__vector_dispatch_112)?(. - _ebase_address):__vector_offset_default
 *(.vector_112)
                0x00000210                __vector_offset_113 = DEFINED (__vector_dispatch_113)?(. - _ebase_address):__vector_offset_default
 *(.vector_113)
                0x00000210                __vector_offset_114 = DEFINED (__vector_dispatch_114)?(. - _ebase_address):__vector_offset_default
 *(.vector_114)
                0x00000210                __vector_offset_115 = DEFINED (__vector_dispatch_115)?(. - _ebase_address):__vector_offset_default
 *(.vector_115)
                0x00000210                __vector_offset_116 = DEFINED (__vector_dispatch_116)?(. - _ebase_address):__vector_offset_default
 *(.vector_116)
                0x00000210                __vector_offset_117 = DEFINED (__vector_dispatch_117)?(. - _ebase_address):__vector_offset_default
 *(.vector_117)
                0x00000210                __vector_offset_118 = DEFINED (__vector_dispatch_118)?(. - _ebase_address):__vector_offset_default
 *(.vector_118)
                0x00000210                __vector_offset_119 = DEFINED (__vector_dispatch_119)?(. - _ebase_address):__vector_offset_default
 *(.vector_119)
                0x00000210                __vector_offset_120 = DEFINED (__vector_dispatch_120)?(. - _ebase_address):__vector_offset_default
 *(.vector_120)
                0x00000210                __vector_offset_121 = DEFINED (__vector_dispatch_121)?(. - _ebase_address):__vector_offset_default
 *(.vector_121)
                0x00000210                __vector_offset_122 = DEFINED (__vector_dispatch_122)?(. - _ebase_address):__vector_offset_default
 *(.vector_122)
                0x00000210                __vector_offset_123 = DEFINED (__vector_dispatch_123)?(. - _ebase_address):__vector_offset_default
 *(.vector_123)
                0x00000210                __vector_offset_124 = DEFINED (__vector_dispatch_124)?(. - _ebase_address):__vector_offset_default
 *(.vector_124)
                0x00000210                __vector_offset_125 = DEFINED (__vector_dispatch_125)?(. - _ebase_address):__vector_offset_default
 *(.vector_125)
                0x00000210                __vector_offset_126 = DEFINED (__vector_dispatch_126)?(. - _ebase_address):__vector_offset_default
 *(.vector_126)
                0x00000210                __vector_offset_127 = DEFINED (__vector_dispatch_127)?(. - _ebase_address):__vector_offset_default
 *(.vector_127)
                0x00000210                __vector_offset_128 = DEFINED (__vector_dispatch_128)?(. - _ebase_address):__vector_offset_default
 *(.vector_128)
                0x00000210                __vector_offset_129 = DEFINED (__vector_dispatch_129)?(. - _ebase_address):__vector_offset_default
 *(.vector_129)
                0x00000210                __vector_offset_130 = DEFINED (__vector_dispatch_130)?(. - _ebase_address):__vector_offset_default
 *(.vector_130)
                0x00000210                __vector_offset_131 = DEFINED (__vector_dispatch_131)?(. - _ebase_address):__vector_offset_default
 *(.vector_131)
                0x00000210                __vector_offset_132 = DEFINED (__vector_dispatch_132)?(. - _ebase_address):__vector_offset_default
 *(.vector_132)
                0x00000210                __vector_offset_133 = DEFINED (__vector_dispatch_133)?(. - _ebase_address):__vector_offset_default
 *(.vector_133)
                0x00000210                __vector_offset_134 = DEFINED (__vector_dispatch_134)?(. - _ebase_address):__vector_offset_default
 *(.vector_134)
                0x00000210                __vector_offset_135 = DEFINED (__vector_dispatch_135)?(. - _ebase_address):__vector_offset_default
 *(.vector_135)
                0x00000208                __vector_offset_136 = DEFINED (__vector_dispatch_136)?(. - _ebase_address):__vector_offset_default
 *(.vector_136)
 .vector_136    0x9d000208        0x8 build/boostv1/production/_ext/208863783/system_interrupt.o
                0x9d000208                __vector_dispatch_136
                0x00000210                __vector_offset_137 = DEFINED (__vector_dispatch_137)?(. - _ebase_address):__vector_offset_default
 *(.vector_137)
                0x00000210                __vector_offset_138 = DEFINED (__vector_dispatch_138)?(. - _ebase_address):__vector_offset_default
 *(.vector_138)
                0x00000210                __vector_offset_139 = DEFINED (__vector_dispatch_139)?(. - _ebase_address):__vector_offset_default
 *(.vector_139)
                0x00000210                __vector_offset_140 = DEFINED (__vector_dispatch_140)?(. - _ebase_address):__vector_offset_default
 *(.vector_140)
                0x00000210                __vector_offset_141 = DEFINED (__vector_dispatch_141)?(. - _ebase_address):__vector_offset_default
 *(.vector_141)
                0x00000210                __vector_offset_142 = DEFINED (__vector_dispatch_142)?(. - _ebase_address):__vector_offset_default
 *(.vector_142)
                0x00000210                __vector_offset_143 = DEFINED (__vector_dispatch_143)?(. - _ebase_address):__vector_offset_default
 *(.vector_143)
                0x00000210                __vector_offset_144 = DEFINED (__vector_dispatch_144)?(. - _ebase_address):__vector_offset_default
 *(.vector_144)
                0x00000210                __vector_offset_145 = DEFINED (__vector_dispatch_145)?(. - _ebase_address):__vector_offset_default
 *(.vector_145)
                0x00000210                __vector_offset_146 = DEFINED (__vector_dispatch_146)?(. - _ebase_address):__vector_offset_default
 *(.vector_146)
                0x00000210                __vector_offset_147 = DEFINED (__vector_dispatch_147)?(. - _ebase_address):__vector_offset_default
 *(.vector_147)
                0x00000210                __vector_offset_148 = DEFINED (__vector_dispatch_148)?(. - _ebase_address):__vector_offset_default
 *(.vector_148)
                0x00000210                __vector_offset_149 = DEFINED (__vector_dispatch_149)?(. - _ebase_address):__vector_offset_default
 *(.vector_149)
                0x00000210                __vector_offset_150 = DEFINED (__vector_dispatch_150)?(. - _ebase_address):__vector_offset_default
 *(.vector_150)
                0x00000210                __vector_offset_151 = DEFINED (__vector_dispatch_151)?(. - _ebase_address):__vector_offset_default
 *(.vector_151)
                0x00000210                __vector_offset_152 = DEFINED (__vector_dispatch_152)?(. - _ebase_address):__vector_offset_default
 *(.vector_152)
                0x00000210                __vector_offset_153 = DEFINED (__vector_dispatch_153)?(. - _ebase_address):__vector_offset_default
 *(.vector_153)
                0x00000210                __vector_offset_154 = DEFINED (__vector_dispatch_154)?(. - _ebase_address):__vector_offset_default
 *(.vector_154)
                0x00000210                __vector_offset_155 = DEFINED (__vector_dispatch_155)?(. - _ebase_address):__vector_offset_default
 *(.vector_155)
                0x00000210                __vector_offset_156 = DEFINED (__vector_dispatch_156)?(. - _ebase_address):__vector_offset_default
 *(.vector_156)
                0x00000210                __vector_offset_157 = DEFINED (__vector_dispatch_157)?(. - _ebase_address):__vector_offset_default
 *(.vector_157)
                0x00000210                __vector_offset_158 = DEFINED (__vector_dispatch_158)?(. - _ebase_address):__vector_offset_default
 *(.vector_158)
                0x00000210                __vector_offset_159 = DEFINED (__vector_dispatch_159)?(. - _ebase_address):__vector_offset_default
 *(.vector_159)
                0x00000210                __vector_offset_160 = DEFINED (__vector_dispatch_160)?(. - _ebase_address):__vector_offset_default
 *(.vector_160)
                0x00000210                __vector_offset_161 = DEFINED (__vector_dispatch_161)?(. - _ebase_address):__vector_offset_default
 *(.vector_161)
                0x00000210                __vector_offset_162 = DEFINED (__vector_dispatch_162)?(. - _ebase_address):__vector_offset_default
 *(.vector_162)
                0x00000210                __vector_offset_163 = DEFINED (__vector_dispatch_163)?(. - _ebase_address):__vector_offset_default
 *(.vector_163)
                0x00000210                __vector_offset_164 = DEFINED (__vector_dispatch_164)?(. - _ebase_address):__vector_offset_default
 *(.vector_164)
                0x00000210                __vector_offset_165 = DEFINED (__vector_dispatch_165)?(. - _ebase_address):__vector_offset_default
 *(.vector_165)
                0x00000210                __vector_offset_166 = DEFINED (__vector_dispatch_166)?(. - _ebase_address):__vector_offset_default
 *(.vector_166)
                0x00000210                __vector_offset_167 = DEFINED (__vector_dispatch_167)?(. - _ebase_address):__vector_offset_default
 *(.vector_167)
                0x00000210                __vector_offset_168 = DEFINED (__vector_dispatch_168)?(. - _ebase_address):__vector_offset_default
 *(.vector_168)
                0x00000210                __vector_offset_169 = DEFINED (__vector_dispatch_169)?(. - _ebase_address):__vector_offset_default
 *(.vector_169)
                0x00000210                __vector_offset_170 = DEFINED (__vector_dispatch_170)?(. - _ebase_address):__vector_offset_default
 *(.vector_170)
                0x00000210                __vector_offset_171 = DEFINED (__vector_dispatch_171)?(. - _ebase_address):__vector_offset_default
 *(.vector_171)
                0x00000210                __vector_offset_172 = DEFINED (__vector_dispatch_172)?(. - _ebase_address):__vector_offset_default
 *(.vector_172)
                0x00000210                __vector_offset_173 = DEFINED (__vector_dispatch_173)?(. - _ebase_address):__vector_offset_default
 *(.vector_173)
                0x00000210                __vector_offset_174 = DEFINED (__vector_dispatch_174)?(. - _ebase_address):__vector_offset_default
 *(.vector_174)
                0x00000210                __vector_offset_175 = DEFINED (__vector_dispatch_175)?(. - _ebase_address):__vector_offset_default
 *(.vector_175)
                0x00000210                __vector_offset_176 = DEFINED (__vector_dispatch_176)?(. - _ebase_address):__vector_offset_default
 *(.vector_176)
                0x00000210                __vector_offset_177 = DEFINED (__vector_dispatch_177)?(. - _ebase_address):__vector_offset_default
 *(.vector_177)
                0x00000210                __vector_offset_178 = DEFINED (__vector_dispatch_178)?(. - _ebase_address):__vector_offset_default
 *(.vector_178)
                0x00000210                __vector_offset_179 = DEFINED (__vector_dispatch_179)?(. - _ebase_address):__vector_offset_default
 *(.vector_179)
                0x00000210                __vector_offset_180 = DEFINED (__vector_dispatch_180)?(. - _ebase_address):__vector_offset_default
 *(.vector_180)
                0x00000210                __vector_offset_181 = DEFINED (__vector_dispatch_181)?(. - _ebase_address):__vector_offset_default
 *(.vector_181)
                0x00000210                __vector_offset_182 = DEFINED (__vector_dispatch_182)?(. - _ebase_address):__vector_offset_default
 *(.vector_182)
                0x00000210                __vector_offset_183 = DEFINED (__vector_dispatch_183)?(. - _ebase_address):__vector_offset_default
 *(.vector_183)
                0x00000210                __vector_offset_184 = DEFINED (__vector_dispatch_184)?(. - _ebase_address):__vector_offset_default
 *(.vector_184)
                0x00000210                __vector_offset_185 = DEFINED (__vector_dispatch_185)?(. - _ebase_address):__vector_offset_default
 *(.vector_185)
                0x00000210                __vector_offset_186 = DEFINED (__vector_dispatch_186)?(. - _ebase_address):__vector_offset_default
 *(.vector_186)
                0x00000210                __vector_offset_187 = DEFINED (__vector_dispatch_187)?(. - _ebase_address):__vector_offset_default
 *(.vector_187)
                0x00000210                __vector_offset_188 = DEFINED (__vector_dispatch_188)?(. - _ebase_address):__vector_offset_default
 *(.vector_188)
                0x00000210                __vector_offset_189 = DEFINED (__vector_dispatch_189)?(. - _ebase_address):__vector_offset_default
 *(.vector_189)
                0x00000210                __vector_offset_190 = DEFINED (__vector_dispatch_190)?(. - _ebase_address):__vector_offset_default
 *(.vector_190)
                0x00000210                __vector_offset_191 = DEFINED (__vector_dispatch_191)?(. - _ebase_address):__vector_offset_default
 *(.vector_191)
                0x00000210                __vector_offset_192 = DEFINED (__vector_dispatch_192)?(. - _ebase_address):__vector_offset_default
 *(.vector_192)
                0x00000210                __vector_offset_193 = DEFINED (__vector_dispatch_193)?(. - _ebase_address):__vector_offset_default
 *(.vector_193)
                0x00000210                __vector_offset_194 = DEFINED (__vector_dispatch_194)?(. - _ebase_address):__vector_offset_default
 *(.vector_194)
                0x00000210                __vector_offset_195 = DEFINED (__vector_dispatch_195)?(. - _ebase_address):__vector_offset_default
 *(.vector_195)
                0x00000210                __vector_offset_196 = DEFINED (__vector_dispatch_196)?(. - _ebase_address):__vector_offset_default
 *(.vector_196)
                0x00000210                __vector_offset_197 = DEFINED (__vector_dispatch_197)?(. - _ebase_address):__vector_offset_default
 *(.vector_197)
                0x00000210                __vector_offset_198 = DEFINED (__vector_dispatch_198)?(. - _ebase_address):__vector_offset_default
 *(.vector_198)
                0x00000210                __vector_offset_199 = DEFINED (__vector_dispatch_199)?(. - _ebase_address):__vector_offset_default
 *(.vector_199)
                0x00000210                __vector_offset_200 = DEFINED (__vector_dispatch_200)?(. - _ebase_address):__vector_offset_default
 *(.vector_200)
                0x00000210                __vector_offset_201 = DEFINED (__vector_dispatch_201)?(. - _ebase_address):__vector_offset_default
 *(.vector_201)
                0x00000210                __vector_offset_202 = DEFINED (__vector_dispatch_202)?(. - _ebase_address):__vector_offset_default
 *(.vector_202)
                0x00000210                __vector_offset_203 = DEFINED (__vector_dispatch_203)?(. - _ebase_address):__vector_offset_default
 *(.vector_203)
                0x00000210                __vector_offset_204 = DEFINED (__vector_dispatch_204)?(. - _ebase_address):__vector_offset_default
 *(.vector_204)
                0x00000210                __vector_offset_205 = DEFINED (__vector_dispatch_205)?(. - _ebase_address):__vector_offset_default
 *(.vector_205)
                0x00000210                __vector_offset_206 = DEFINED (__vector_dispatch_206)?(. - _ebase_address):__vector_offset_default
 *(.vector_206)
                0x00000210                __vector_offset_207 = DEFINED (__vector_dispatch_207)?(. - _ebase_address):__vector_offset_default
 *(.vector_207)
                0x00000210                __vector_offset_208 = DEFINED (__vector_dispatch_208)?(. - _ebase_address):__vector_offset_default
 *(.vector_208)
                0x00000210                __vector_offset_209 = DEFINED (__vector_dispatch_209)?(. - _ebase_address):__vector_offset_default
 *(.vector_209)
                0x00000210                __vector_offset_210 = DEFINED (__vector_dispatch_210)?(. - _ebase_address):__vector_offset_default
 *(.vector_210)
                0x00000210                __vector_offset_211 = DEFINED (__vector_dispatch_211)?(. - _ebase_address):__vector_offset_default
 *(.vector_211)
                0x00000210                __vector_offset_212 = DEFINED (__vector_dispatch_212)?(. - _ebase_address):__vector_offset_default
 *(.vector_212)
                0x00000210                __vector_offset_213 = DEFINED (__vector_dispatch_213)?(. - _ebase_address):__vector_offset_default
 *(.vector_213)
                0x00000210                __vector_offset_214 = DEFINED (__vector_dispatch_214)?(. - _ebase_address):__vector_offset_default
 *(.vector_214)
                0x00000210                __vector_offset_215 = DEFINED (__vector_dispatch_215)?(. - _ebase_address):__vector_offset_default
 *(.vector_215)
                0x00000210                __vector_offset_216 = DEFINED (__vector_dispatch_216)?(. - _ebase_address):__vector_offset_default
 *(.vector_216)
                0x00000210                __vector_offset_217 = DEFINED (__vector_dispatch_217)?(. - _ebase_address):__vector_offset_default
 *(.vector_217)
                0x00000210                __vector_offset_218 = DEFINED (__vector_dispatch_218)?(. - _ebase_address):__vector_offset_default
 *(.vector_218)
                0x00000210                __vector_offset_219 = DEFINED (__vector_dispatch_219)?(. - _ebase_address):__vector_offset_default
 *(.vector_219)
                0x00000210                __vector_offset_220 = DEFINED (__vector_dispatch_220)?(. - _ebase_address):__vector_offset_default
 *(.vector_220)
                0x00000210                __vector_offset_221 = DEFINED (__vector_dispatch_221)?(. - _ebase_address):__vector_offset_default
 *(.vector_221)
                0x00000210                __vector_offset_222 = DEFINED (__vector_dispatch_222)?(. - _ebase_address):__vector_offset_default
 *(.vector_222)
                0x00000210                __vector_offset_223 = DEFINED (__vector_dispatch_223)?(. - _ebase_address):__vector_offset_default
 *(.vector_223)
                0x00000210                __vector_offset_224 = DEFINED (__vector_dispatch_224)?(. - _ebase_address):__vector_offset_default
 *(.vector_224)
                0x00000210                __vector_offset_225 = DEFINED (__vector_dispatch_225)?(. - _ebase_address):__vector_offset_default
 *(.vector_225)
                0x00000210                __vector_offset_226 = DEFINED (__vector_dispatch_226)?(. - _ebase_address):__vector_offset_default
 *(.vector_226)
                0x00000210                __vector_offset_227 = DEFINED (__vector_dispatch_227)?(. - _ebase_address):__vector_offset_default
 *(.vector_227)
                0x00000210                __vector_offset_228 = DEFINED (__vector_dispatch_228)?(. - _ebase_address):__vector_offset_default
 *(.vector_228)
                0x00000210                __vector_offset_229 = DEFINED (__vector_dispatch_229)?(. - _ebase_address):__vector_offset_default
 *(.vector_229)
                0x00000210                __vector_offset_230 = DEFINED (__vector_dispatch_230)?(. - _ebase_address):__vector_offset_default
 *(.vector_230)
                0x00000210                __vector_offset_231 = DEFINED (__vector_dispatch_231)?(. - _ebase_address):__vector_offset_default
 *(.vector_231)
                0x00000210                __vector_offset_232 = DEFINED (__vector_dispatch_232)?(. - _ebase_address):__vector_offset_default
 *(.vector_232)
                0x00000210                __vector_offset_233 = DEFINED (__vector_dispatch_233)?(. - _ebase_address):__vector_offset_default
 *(.vector_233)
                0x00000210                __vector_offset_234 = DEFINED (__vector_dispatch_234)?(. - _ebase_address):__vector_offset_default
 *(.vector_234)
                0x00000210                __vector_offset_235 = DEFINED (__vector_dispatch_235)?(. - _ebase_address):__vector_offset_default
 *(.vector_235)
                0x00000210                __vector_offset_236 = DEFINED (__vector_dispatch_236)?(. - _ebase_address):__vector_offset_default
 *(.vector_236)
                0x00000210                __vector_offset_237 = DEFINED (__vector_dispatch_237)?(. - _ebase_address):__vector_offset_default
 *(.vector_237)
                0x00000210                __vector_offset_238 = DEFINED (__vector_dispatch_238)?(. - _ebase_address):__vector_offset_default
 *(.vector_238)
                0x00000210                __vector_offset_239 = DEFINED (__vector_dispatch_239)?(. - _ebase_address):__vector_offset_default
 *(.vector_239)
                0x00000210                __vector_offset_240 = DEFINED (__vector_dispatch_240)?(. - _ebase_address):__vector_offset_default
 *(.vector_240)
                0x00000210                __vector_offset_241 = DEFINED (__vector_dispatch_241)?(. - _ebase_address):__vector_offset_default
 *(.vector_241)
                0x00000210                __vector_offset_242 = DEFINED (__vector_dispatch_242)?(. - _ebase_address):__vector_offset_default
 *(.vector_242)
                0x00000210                __vector_offset_243 = DEFINED (__vector_dispatch_243)?(. - _ebase_address):__vector_offset_default
 *(.vector_243)
                0x00000210                __vector_offset_244 = DEFINED (__vector_dispatch_244)?(. - _ebase_address):__vector_offset_default
 *(.vector_244)
                0x00000210                __vector_offset_245 = DEFINED (__vector_dispatch_245)?(. - _ebase_address):__vector_offset_default
 *(.vector_245)
                0x00000210                __vector_offset_246 = DEFINED (__vector_dispatch_246)?(. - _ebase_address):__vector_offset_default
 *(.vector_246)
                0x00000210                __vector_offset_247 = DEFINED (__vector_dispatch_247)?(. - _ebase_address):__vector_offset_default
 *(.vector_247)
                0x00000210                __vector_offset_248 = DEFINED (__vector_dispatch_248)?(. - _ebase_address):__vector_offset_default
 *(.vector_248)
                0x00000210                __vector_offset_249 = DEFINED (__vector_dispatch_249)?(. - _ebase_address):__vector_offset_default
 *(.vector_249)
                0x00000210                __vector_offset_250 = DEFINED (__vector_dispatch_250)?(. - _ebase_address):__vector_offset_default
 *(.vector_250)
                0x00000210                __vector_offset_251 = DEFINED (__vector_dispatch_251)?(. - _ebase_address):__vector_offset_default
 *(.vector_251)
                0x00000210                __vector_offset_252 = DEFINED (__vector_dispatch_252)?(. - _ebase_address):__vector_offset_default
 *(.vector_252)
                0x00000210                __vector_offset_253 = DEFINED (__vector_dispatch_253)?(. - _ebase_address):__vector_offset_default
 *(.vector_253)
                0x00000210                __vector_offset_254 = DEFINED (__vector_dispatch_254)?(. - _ebase_address):__vector_offset_default
 *(.vector_254)
                0x00000210                __vector_offset_255 = DEFINED (__vector_dispatch_255)?(. - _ebase_address):__vector_offset_default
 *(.vector_255)
                0x00000210                __vector_offset_default = (. - _ebase_address)
 *(.vector_default)
 .vector_default
                0x9d000210       0x48 c:/program files (x86)/microchip/xc32/v1.40/bin/bin/../../lib/gcc/pic32mx/4.8.3/../../../../pic32mx/lib\libpic32.a(defaultinterrupt.o)
                0x9d000210                _DefaultInterrupt

.startup
 *(.startup)

.text           0x9d000258        0x0
 *(.stub .gnu.linkonce.t.*)
 *(.text.*personality*)
 *(.mips16.fn.*)
 *(.mips16.call.*)
 *(.gnu.warning)
                0x9d000258                . = ALIGN (0x4)

.init           0x9d000258        0x0
 *crti.o(.init)
 *crtbegin.o(.init)
 *(EXCLUDE_FILE(*crtn.o *crtend?.o *crtend.o) .init)
 *crtend.o(.init)
 *crtn.o(.init)
                0x9d000258                . = ALIGN (0x4)

.fini           0x9d000258        0x0
 *(.fini)
                0x9d000258                . = ALIGN (0x4)

.preinit_array  0x9d000258        0x0
                0x9d000258                PROVIDE (__preinit_array_start, .)
 *(.preinit_array)
                0x9d000258                PROVIDE (__preinit_array_end, .)
                0x9d000258                . = ALIGN (0x4)

.init_array     0x9d000258        0x0
                0x9d000258                PROVIDE (__init_array_start, .)
 *(SORT(.init_array.*))
 *(.init_array)
                0x9d000258                PROVIDE (__init_array_end, .)
                0x9d000258                . = ALIGN (0x4)

.fini_array     0x9d000258        0x0
                0x9d000258                PROVIDE (__fini_array_start, .)
 *(SORT(.fini_array.*))
 *(.fini_array)
                0x9d000258                PROVIDE (__fini_array_end, .)
                0x9d000258                . = ALIGN (0x4)

.ctors          0x9d000258        0x0
 *crtbegin.o(.ctors)
 *crtbegin?.o(.ctors)
 *(EXCLUDE_FILE(*crtend?.o *crtend.o) .ctors)
 *(SORT(.ctors.*))
 *(.ctors)
                0x9d000258                . = ALIGN (0x4)

.dtors          0x9d000258        0x0
 *crtbegin.o(.dtors)
 *crtbegin?.o(.dtors)
 *(EXCLUDE_FILE(*crtend?.o *crtend.o) .dtors)
 *(SORT(.dtors.*))
 *(.dtors)
                0x9d000258                . = ALIGN (0x4)

.rodata         0x9d000258        0x0
 *(.gnu.linkonce.r.*)
 *(.rodata1)
                0x9d000258                . = ALIGN (0x4)

.sdata2         0x9fc004b0        0x0
 *(.sdata2 .sdata2.* .gnu.linkonce.s2.*)
                0x9fc004b0                . = ALIGN (0x4)

.sbss2          0x9fc004b0        0x0
 *(.sbss2 .sbss2.* .gnu.linkonce.sb2.*)
                0x9fc004b0                . = ALIGN (0x4)

.eh_frame_hdr
 *(.eh_frame_hdr)
                0x9fc004b0                . = ALIGN (0x4)

.eh_frame
 *(.eh_frame)
                0x9fc004b0                . = ALIGN (0x4)

.gcc_except_table
 *(.gcc_except_table .gcc_except_table.*)
                0x9fc004b0                . = ALIGN (0x4)

.dbg_data       0x80000000        0x0
                0x80000000                . = (. + DEFINED (_DEBUGGER)?0x200:0x0)
                0x80000000                . = (. + DEFINED (_DEBUGGER)?0x80:0x0)

.jcr            0x80000000        0x0
 *(.jcr)
                0x80000000                . = ALIGN (0x4)

.eh_frame
 *(.eh_frame)
                0x80000000                . = ALIGN (0x4)

.gcc_except_table
 *(.gcc_except_table .gcc_except_table.*)
                0x80000000                . = ALIGN (0x4)

.persist        0x80000000        0x0
                0x80000000                _persist_begin = .
 *(.persist .persist.*)
 *(.pbss .pbss.*)
                0x80000000                . = ALIGN (0x4)
                0x80000000                _persist_end = .

.data           0x80000000        0x0
 *(.gnu.linkonce.d.*)
 *(.data1)
                0x80000000                . = ALIGN (0x4)
                0x80000000                . = .
                0x80007ff0                _gp = (ALIGN (0x10) + 0x7ff0)

.got            0x80000000        0x0
 *(.got.plt)
 *(.got)
                0x80000000                . = ALIGN (0x4)

.sdata          0x80000000       0x50
                0x80000000                _sdata_begin = .
 *(.sdata .sdata.* .gnu.linkonce.s.*)
 .sdata         0x80000000        0x8 build/boostv1/production/_ext/1390999610/drv_gfx_lcc_int_pe.o
                0x80000004                HBackPorch
                0x80000006                HFrontPorch
 .sdata         0x80000008       0x14 build/boostv1/production/_ext/1945137225/drv_adc10bit.o
                0x80000008                adcX
                0x8000000a                adcY
                0x8000000c                xRawTouch
                0x80000014                yRawTouch
 .sdata         0x8000001c        0xc build/boostv1/production/_ext/386020355/gfx_primitive.o
 .sdata         0x80000028        0x4 build/boostv1/production/_ext/846513563/sys_touch.o
 .sdata         0x8000002c       0x24 c:/program files (x86)/microchip/xc32/v1.40/bin/bin/../../lib/gcc/pic32mx/4.8.3/../../../../pic32mx/lib\libpic32.a(pic32_init_cache.o)
                0x8000002c                __pic32_icache_size
                0x80000030                __pic32_icache_linesize
                0x80000034                __pic32_icache_ways
                0x80000038                __pic32_dcache_size
                0x8000003c                __pic32_dcache_linesize
                0x80000040                __pic32_dcache_ways
                0x80000044                __pic32_scache_size
                0x80000048                __pic32_scache_linesize
                0x8000004c                __pic32_scache_ways
                0x80000050                . = ALIGN (0x4)
                0x80000050                _sdata_end = .

.lit8
 *(.lit8)

.lit4
 *(.lit4)
                0x80000050                . = ALIGN (0x4)
                0x80000050                _data_end = .
                0x80000050                _bss_begin = .

.sbss           0x80000050      0x114
                0x80000050                _sbss_begin = .
 *(.dynsbss)
 *(.sbss .sbss.* .gnu.linkonce.sb.*)
 .sbss          0x80000050        0xc build/boostv1/production/_ext/208863783/system_exceptions.o
 .sbss          0x8000005c       0x10 build/boostv1/production/_ext/1390999610/drv_gfx_lcc_int_pe.o
 .sbss          0x8000006c        0x4 build/boostv1/production/_ext/185269848/drv_tmr.o
 .sbss          0x80000070       0x10 build/boostv1/production/_ext/1945137225/drv_adc10bit.o
                0x80000070                adcPot
                0x80000074                state
 .sbss          0x80000080       0xb4 build/boostv1/production/_ext/386020355/gfx_primitive.o
 *(.scommon)
 .scommon       0x80000134        0x4 build/boostv1/production/_ext/1360937237/app.o
                0x80000134                appData
 .scommon       0x80000138        0x8 build/boostv1/production/_ext/1390999610/drv_gfx_lcc_int_pe.o
                0x80000138                frameBufferAddress
                0x8000013c                activePageAddress
 .scommon       0x80000140       0x14 build/boostv1/production/_ext/1945137225/drv_adc10bit.o
                0x80000140                _trC
                0x80000144                _trB
                0x80000148                _trA
                0x8000014c                _trD
                0x80000150                pDrvInstance
 .scommon       0x80000154        0x4 build/boostv1/production/_ext/386020355/gfx_primitive.o
                0x80000154                gfxDrv
 .scommon       0x80000158        0x8 build/boostv1/production/_ext/1271179505/sys_devcon.o
                0x80000158                sysDevconObj
 .scommon       0x80000160        0x1 build/boostv1/production/_ext/846513563/sys_touch.o
                0x80000160                gSysTouchCommonDataObj
                0x80000161                _sbss_end = .
                0x80000164                . = ALIGN (0x4)
 *fill*         0x80000161        0x3 

.bss            0x80000164       0xc8
 *(.dynbss)
 *(COMMON)
 COMMON         0x80000164       0x20 build/boostv1/production/_ext/208863783/system_init.o
                0x80000164                sysObj
 COMMON         0x80000184       0x80 build/boostv1/production/_ext/65930274/sys_dma.o
                0x80000184                gSysDMAChannelObj
 COMMON         0x80000204       0x28 build/boostv1/production/_ext/846513563/sys_touch.o
                0x80000204                gSysTouchObj
                0x8000021c                gSysTouchClientObj
                0x8000022c                . = ALIGN ((. != 0x0)?0x4:0x1)
                0x8000022c                . = ALIGN (0x4)
                0x8000022c                _end = .
                0x8000022c                _bss_end = .
                0x00080000                _bmxdudba_address = 0x80000
                0x00080000                _bmxdupba_address = 0x80000

/DISCARD/
 *(.pdr)
 *(.rel.dyn)
 *(.note.GNU-stack)
 *(.note.GNU-stack)
 *(.gnu_debuglink)
 *(.gnu.lto_*)
 *(.discard)

.gptab.sdata
 *(.gptab.data)
 *(.gptab.sdata)

.gptab.sbss
 *(.gptab.bss)
 *(.gptab.sbss)

.mdebug.abi32   0x8000022c        0x0
 *(.mdebug.abi32)
 .mdebug.abi32  0x8000022c        0x0 build/boostv1/production/_ext/2140773153/drv_i2c_static.o
 .mdebug.abi32  0x8000022c        0x0 build/boostv1/production/_ext/1464490010/drv_pmp_static.o
 .mdebug.abi32  0x8000022c        0x0 build/boostv1/production/_ext/1526535504/sys_clk_static.o
 .mdebug.abi32  0x8000022c        0x0 build/boostv1/production/_ext/385613664/sys_ports_static.o
 .mdebug.abi32  0x8000022c        0x0 build/boostv1/production/_ext/208863783/system_init.o
 .mdebug.abi32  0x8000022c        0x0 build/boostv1/production/_ext/208863783/system_interrupt.o
 .mdebug.abi32  0x8000022c        0x0 build/boostv1/production/_ext/208863783/system_exceptions.o
 .mdebug.abi32  0x8000022c        0x0 build/boostv1/production/_ext/208863783/system_tasks.o
 .mdebug.abi32  0x8000022c        0x0 build/boostv1/production/_ext/1360937237/app.o
 .mdebug.abi32  0x8000022c        0x0 build/boostv1/production/_ext/1360937237/main.o
 .mdebug.abi32  0x8000022c        0x0 build/boostv1/production/_ext/1360937237/delay.o
 .mdebug.abi32  0x8000022c        0x0 build/boostv1/production/_ext/1390999610/drv_gfx_lcc_int_pe.o
 .mdebug.abi32  0x8000022c        0x0 build/boostv1/production/_ext/185269848/drv_tmr.o
 .mdebug.abi32  0x8000022c        0x0 build/boostv1/production/_ext/1945137225/drv_adc10bit.o
 .mdebug.abi32  0x8000022c        0x0 build/boostv1/production/_ext/386020355/gfx.o
 .mdebug.abi32  0x8000022c        0x0 build/boostv1/production/_ext/386020355/gfx_primitive.o
 .mdebug.abi32  0x8000022c        0x0 build/boostv1/production/_ext/1271179505/sys_devcon.o
 .mdebug.abi32  0x8000022c        0x0 build/boostv1/production/_ext/1271179505/sys_devcon_pic32mz.o
 .mdebug.abi32  0x8000022c        0x0 build/boostv1/production/_ext/65930274/sys_dma.o
 .mdebug.abi32  0x8000022c        0x0 build/boostv1/production/_ext/122796885/sys_int_pic32.o
 .mdebug.abi32  0x8000022c        0x0 build/boostv1/production/_ext/77319752/sys_ports.o
 .mdebug.abi32  0x8000022c        0x0 build/boostv1/production/_ext/1264926591/sys_tmr.o
 .mdebug.abi32  0x8000022c        0x0 build/boostv1/production/_ext/846513563/sys_touch.o
 .mdebug.abi32  0x8000022c        0x0 c:/program files (x86)/microchip/xc32/v1.40/bin/bin/../../lib/gcc/pic32mx/4.8.3\libgcc.a(_udivdi3.o)
 .mdebug.abi32  0x8000022c        0x0 c:/program files (x86)/microchip/xc32/v1.40/bin/bin/../../lib/gcc/pic32mx/4.8.3\libgcc.a(floatunsisf.o)
 .mdebug.abi32  0x8000022c        0x0 c:/program files (x86)/microchip/xc32/v1.40/bin/bin/../../lib/gcc/pic32mx/4.8.3/../../../../pic32mx/lib\libpic32.a(default-bootstrap-exception-handler.o)
 .mdebug.abi32  0x8000022c        0x0 c:/program files (x86)/microchip/xc32/v1.40/bin/bin/../../lib/gcc/pic32mx/4.8.3/../../../../pic32mx/lib\libpic32.a(default-on-reset.o)
 .mdebug.abi32  0x8000022c        0x0 c:/program files (x86)/microchip/xc32/v1.40/bin/bin/../../lib/gcc/pic32mx/4.8.3/../../../../pic32mx/lib\libpic32.a(default-on-bootstrap.o)
 .mdebug.abi32  0x8000022c        0x0 c:/program files (x86)/microchip/xc32/v1.40/bin/bin/../../lib/gcc/pic32mx/4.8.3/../../../../pic32mx/lib\libpic32.a(defaultinterrupt.o)
 .mdebug.abi32  0x8000022c        0x0 c:/program files (x86)/microchip/xc32/v1.40/bin/bin/../../lib/gcc/pic32mx/4.8.3/../../../../pic32mx/lib\libpic32.a(default-cache-err-exception-handler.o)
 .mdebug.abi32  0x8000022c        0x0 c:/program files (x86)/microchip/xc32/v1.40/bin/bin/../../lib/gcc/pic32mx/4.8.3/../../../../pic32mx/lib\libpic32.a(default-simple-tlb-refill-exception-handler.o)

.mdebug.abiN32
 *(.mdebug.abiN32)

.mdebug.abi64
 *(.mdebug.abi64)

.mdebug.abiO64
 *(.mdebug.abiO64)

.mdebug.eabi32
 *(.mdebug.eabi32)

.mdebug.eabi64
 *(.mdebug.eabi64)

.gcc_compiled_long32
 *(.gcc_compiled_long32)

.gcc_compiled_long64
 *(.gcc_compiled_long64)

.stab
 *(.stab)

.stabstr
 *(.stabstr)

.stab.excl
 *(.stab.excl)

.stab.exclstr
 *(.stab.exclstr)

.stab.index
 *(.stab.index)

.stab.indexstr
 *(.stab.indexstr)

.comment        0x00000000       0x54
 *(.comment)
 .comment       0x00000000       0x3c build/boostv1/production/_ext/2140773153/drv_i2c_static.o
                                 0x3d (size before relaxing)
 .comment       0x00000000       0x3d build/boostv1/production/_ext/1464490010/drv_pmp_static.o
 .comment       0x00000000       0x3d build/boostv1/production/_ext/1526535504/sys_clk_static.o
 .comment       0x00000000       0x3d build/boostv1/production/_ext/385613664/sys_ports_static.o
 .comment       0x00000000       0x3d build/boostv1/production/_ext/208863783/system_init.o
 .comment       0x00000000       0x3d build/boostv1/production/_ext/208863783/system_interrupt.o
 .comment       0x00000000       0x3d build/boostv1/production/_ext/208863783/system_exceptions.o
 .comment       0x00000000       0x3d build/boostv1/production/_ext/208863783/system_tasks.o
 .comment       0x00000000       0x3d build/boostv1/production/_ext/1360937237/app.o
 .comment       0x00000000       0x3d build/boostv1/production/_ext/1360937237/main.o
 .comment       0x00000000       0x3d build/boostv1/production/_ext/1360937237/delay.o
 .comment       0x00000000       0x3d build/boostv1/production/_ext/1390999610/drv_gfx_lcc_int_pe.o
 .comment       0x00000000       0x3d build/boostv1/production/_ext/185269848/drv_tmr.o
 .comment       0x00000000       0x3d build/boostv1/production/_ext/1945137225/drv_adc10bit.o
 .comment       0x00000000       0x3d build/boostv1/production/_ext/386020355/gfx.o
 .comment       0x00000000       0x3d build/boostv1/production/_ext/386020355/gfx_primitive.o
 .comment       0x00000000       0x3d build/boostv1/production/_ext/1271179505/sys_devcon.o
 .comment       0x00000000       0x3d build/boostv1/production/_ext/1271179505/sys_devcon_pic32mz.o
 .comment       0x00000000       0x3d build/boostv1/production/_ext/65930274/sys_dma.o
 .comment       0x00000000       0x3d build/boostv1/production/_ext/122796885/sys_int_pic32.o
 .comment       0x00000000       0x3d build/boostv1/production/_ext/77319752/sys_ports.o
 .comment       0x00000000       0x3d build/boostv1/production/_ext/1264926591/sys_tmr.o
 .comment       0x00000000       0x3d build/boostv1/production/_ext/846513563/sys_touch.o
 .comment       0x00000000       0x3d c:/program files (x86)/microchip/xc32/v1.40/bin/bin/../../lib/gcc/pic32mx/4.8.3\libgcc.a(_udivdi3.o)
 .comment       0x00000000       0x3d c:/program files (x86)/microchip/xc32/v1.40/bin/bin/../../lib/gcc/pic32mx/4.8.3\libgcc.a(floatunsisf.o)
 .comment       0x0000003c       0x18 c:/program files (x86)/microchip/xc32/v1.40/bin/bin/../../lib/gcc/pic32mx/4.8.3/../../../../pic32mx/lib\libpic32.a(memset.o)
                                 0x19 (size before relaxing)
 .comment       0x00000000       0x3d c:/program files (x86)/microchip/xc32/v1.40/bin/bin/../../lib/gcc/pic32mx/4.8.3/../../../../pic32mx/lib\libpic32.a(default-bootstrap-exception-handler.o)
 .comment       0x00000000       0x3d c:/program files (x86)/microchip/xc32/v1.40/bin/bin/../../lib/gcc/pic32mx/4.8.3/../../../../pic32mx/lib\libpic32.a(default-on-reset.o)
 .comment       0x00000000       0x3d c:/program files (x86)/microchip/xc32/v1.40/bin/bin/../../lib/gcc/pic32mx/4.8.3/../../../../pic32mx/lib\libpic32.a(default-on-bootstrap.o)
 .comment       0x00000000       0x3d c:/program files (x86)/microchip/xc32/v1.40/bin/bin/../../lib/gcc/pic32mx/4.8.3/../../../../pic32mx/lib\libpic32.a(defaultinterrupt.o)
 .comment       0x00000000       0x3d c:/program files (x86)/microchip/xc32/v1.40/bin/bin/../../lib/gcc/pic32mx/4.8.3/../../../../pic32mx/lib\libpic32.a(default-cache-err-exception-handler.o)
 .comment       0x00000000       0x3d c:/program files (x86)/microchip/xc32/v1.40/bin/bin/../../lib/gcc/pic32mx/4.8.3/../../../../pic32mx/lib\libpic32.a(default-simple-tlb-refill-exception-handler.o)

.debug
 *(.debug)

.line
 *(.line)

.debug_srcinfo
 *(.debug_srcinfo)

.debug_sfnames
 *(.debug_sfnames)

.debug_aranges  0x00000000      0xde8
 *(.debug_aranges)
 .debug_aranges
                0x00000000       0xa8 build/boostv1/production/_ext/2140773153/drv_i2c_static.o
 .debug_aranges
                0x000000a8       0x40 build/boostv1/production/_ext/1464490010/drv_pmp_static.o
 .debug_aranges
                0x000000e8       0x38 build/boostv1/production/_ext/1526535504/sys_clk_static.o
 .debug_aranges
                0x00000120       0x20 build/boostv1/production/_ext/385613664/sys_ports_static.o
 .debug_aranges
                0x00000140       0x20 build/boostv1/production/_ext/208863783/system_init.o
 .debug_aranges
                0x00000160       0x28 build/boostv1/production/_ext/208863783/system_interrupt.o
 .debug_aranges
                0x00000188       0x20 build/boostv1/production/_ext/208863783/system_exceptions.o
 .debug_aranges
                0x000001a8       0x20 build/boostv1/production/_ext/208863783/system_tasks.o
 .debug_aranges
                0x000001c8       0x28 build/boostv1/production/_ext/1360937237/app.o
 .debug_aranges
                0x000001f0       0x20 build/boostv1/production/_ext/1360937237/main.o
 .debug_aranges
                0x00000210       0x40 build/boostv1/production/_ext/1360937237/delay.o
 .debug_aranges
                0x00000250       0x98 build/boostv1/production/_ext/1390999610/drv_gfx_lcc_int_pe.o
 .debug_aranges
                0x000002e8      0x178 build/boostv1/production/_ext/185269848/drv_tmr.o
 .debug_aranges
                0x00000460       0x98 build/boostv1/production/_ext/1945137225/drv_adc10bit.o
 .debug_aranges
                0x000004f8       0x48 build/boostv1/production/_ext/386020355/gfx.o
 .debug_aranges
                0x00000540      0x338 build/boostv1/production/_ext/386020355/gfx_primitive.o
 .debug_aranges
                0x00000878       0x78 build/boostv1/production/_ext/1271179505/sys_devcon.o
 .debug_aranges
                0x000008f0       0xc8 build/boostv1/production/_ext/1271179505/sys_devcon_pic32mz.o
 .debug_aranges
                0x000009b8       0xe8 build/boostv1/production/_ext/65930274/sys_dma.o
 .debug_aranges
                0x00000aa0       0x48 build/boostv1/production/_ext/122796885/sys_int_pic32.o
 .debug_aranges
                0x00000ae8       0xf8 build/boostv1/production/_ext/77319752/sys_ports.o
 .debug_aranges
                0x00000be0       0xc8 build/boostv1/production/_ext/1264926591/sys_tmr.o
 .debug_aranges
                0x00000ca8       0x40 build/boostv1/production/_ext/846513563/sys_touch.o
 .debug_aranges
                0x00000ce8       0x20 c:/program files (x86)/microchip/xc32/v1.40/bin/bin/../../lib/gcc/pic32mx/4.8.3\libgcc.a(_udivdi3.o)
 .debug_aranges
                0x00000d08       0x20 c:/program files (x86)/microchip/xc32/v1.40/bin/bin/../../lib/gcc/pic32mx/4.8.3\libgcc.a(floatunsisf.o)
 .debug_aranges
                0x00000d28       0x20 c:/program files (x86)/microchip/xc32/v1.40/bin/bin/../../lib/gcc/pic32mx/4.8.3/../../../../pic32mx/lib\libpic32.a(default-bootstrap-exception-handler.o)
 .debug_aranges
                0x00000d48       0x20 c:/program files (x86)/microchip/xc32/v1.40/bin/bin/../../lib/gcc/pic32mx/4.8.3/../../../../pic32mx/lib\libpic32.a(default-on-reset.o)
 .debug_aranges
                0x00000d68       0x20 c:/program files (x86)/microchip/xc32/v1.40/bin/bin/../../lib/gcc/pic32mx/4.8.3/../../../../pic32mx/lib\libpic32.a(default-on-bootstrap.o)
 .debug_aranges
                0x00000d88       0x20 c:/program files (x86)/microchip/xc32/v1.40/bin/bin/../../lib/gcc/pic32mx/4.8.3/../../../../pic32mx/lib\libpic32.a(defaultinterrupt.o)
 .debug_aranges
                0x00000da8       0x20 c:/program files (x86)/microchip/xc32/v1.40/bin/bin/../../lib/gcc/pic32mx/4.8.3/../../../../pic32mx/lib\libpic32.a(default-cache-err-exception-handler.o)
 .debug_aranges
                0x00000dc8       0x20 c:/program files (x86)/microchip/xc32/v1.40/bin/bin/../../lib/gcc/pic32mx/4.8.3/../../../../pic32mx/lib\libpic32.a(default-simple-tlb-refill-exception-handler.o)

.debug_pubnames
 *(.debug_pubnames)

.debug_info     0x00000000    0x4dc46
 *(.debug_info .gnu.linkonce.wi.*)
 .debug_info    0x00000000     0x398a build/boostv1/production/_ext/2140773153/drv_i2c_static.o
 .debug_info    0x0000398a     0x1836 build/boostv1/production/_ext/1464490010/drv_pmp_static.o
 .debug_info    0x000051c0     0x28cf build/boostv1/production/_ext/1526535504/sys_clk_static.o
 .debug_info    0x00007a8f     0x1c99 build/boostv1/production/_ext/385613664/sys_ports_static.o
 .debug_info    0x00009728     0x55b8 build/boostv1/production/_ext/208863783/system_init.o
 .debug_info    0x0000ece0     0x2a18 build/boostv1/production/_ext/208863783/system_interrupt.o
 .debug_info    0x000116f8     0x1571 build/boostv1/production/_ext/208863783/system_exceptions.o
 .debug_info    0x00012c69     0x1632 build/boostv1/production/_ext/208863783/system_tasks.o
 .debug_info    0x0001429b     0x1553 build/boostv1/production/_ext/1360937237/app.o
 .debug_info    0x000157ee      0x1b4 build/boostv1/production/_ext/1360937237/main.o
 .debug_info    0x000159a2      0x6e7 build/boostv1/production/_ext/1360937237/delay.o
 .debug_info    0x00016089     0x83f9 build/boostv1/production/_ext/1390999610/drv_gfx_lcc_int_pe.o
 .debug_info    0x0001e482     0x90cd build/boostv1/production/_ext/185269848/drv_tmr.o
 .debug_info    0x0002754f     0x4397 build/boostv1/production/_ext/1945137225/drv_adc10bit.o
 .debug_info    0x0002b8e6     0x1203 build/boostv1/production/_ext/386020355/gfx.o
 .debug_info    0x0002cae9     0x8fe4 build/boostv1/production/_ext/386020355/gfx_primitive.o
 .debug_info    0x00035acd     0x119b build/boostv1/production/_ext/1271179505/sys_devcon.o
 .debug_info    0x00036c68     0x10c3 build/boostv1/production/_ext/1271179505/sys_devcon_pic32mz.o
 .debug_info    0x00037d2b     0x8e9c build/boostv1/production/_ext/65930274/sys_dma.o
 .debug_info    0x00040bc7     0x1e8a build/boostv1/production/_ext/122796885/sys_int_pic32.o
 .debug_info    0x00042a51     0x4d67 build/boostv1/production/_ext/77319752/sys_ports.o
 .debug_info    0x000477b8     0x2516 build/boostv1/production/_ext/1264926591/sys_tmr.o
 .debug_info    0x00049cce     0x31f8 build/boostv1/production/_ext/846513563/sys_touch.o
 .debug_info    0x0004cec6      0x74f c:/program files (x86)/microchip/xc32/v1.40/bin/bin/../../lib/gcc/pic32mx/4.8.3\libgcc.a(_udivdi3.o)
 .debug_info    0x0004d615      0x11f c:/program files (x86)/microchip/xc32/v1.40/bin/bin/../../lib/gcc/pic32mx/4.8.3\libgcc.a(floatunsisf.o)
 .debug_info    0x0004d734       0xe3 c:/program files (x86)/microchip/xc32/v1.40/bin/bin/../../lib/gcc/pic32mx/4.8.3/../../../../pic32mx/lib\libpic32.a(default-bootstrap-exception-handler.o)
 .debug_info    0x0004d817       0xbd c:/program files (x86)/microchip/xc32/v1.40/bin/bin/../../lib/gcc/pic32mx/4.8.3/../../../../pic32mx/lib\libpic32.a(default-on-reset.o)
 .debug_info    0x0004d8d4       0xc5 c:/program files (x86)/microchip/xc32/v1.40/bin/bin/../../lib/gcc/pic32mx/4.8.3/../../../../pic32mx/lib\libpic32.a(default-on-bootstrap.o)
 .debug_info    0x0004d999       0xd7 c:/program files (x86)/microchip/xc32/v1.40/bin/bin/../../lib/gcc/pic32mx/4.8.3/../../../../pic32mx/lib\libpic32.a(defaultinterrupt.o)
 .debug_info    0x0004da70       0xe3 c:/program files (x86)/microchip/xc32/v1.40/bin/bin/../../lib/gcc/pic32mx/4.8.3/../../../../pic32mx/lib\libpic32.a(default-cache-err-exception-handler.o)
 .debug_info    0x0004db53       0xf3 c:/program files (x86)/microchip/xc32/v1.40/bin/bin/../../lib/gcc/pic32mx/4.8.3/../../../../pic32mx/lib\libpic32.a(default-simple-tlb-refill-exception-handler.o)

.debug_abbrev   0x00000000     0x39f1
 *(.debug_abbrev)
 .debug_abbrev  0x00000000      0x2ba build/boostv1/production/_ext/2140773153/drv_i2c_static.o
 .debug_abbrev  0x000002ba      0x194 build/boostv1/production/_ext/1464490010/drv_pmp_static.o
 .debug_abbrev  0x0000044e      0x233 build/boostv1/production/_ext/1526535504/sys_clk_static.o
 .debug_abbrev  0x00000681      0x152 build/boostv1/production/_ext/385613664/sys_ports_static.o
 .debug_abbrev  0x000007d3      0x327 build/boostv1/production/_ext/208863783/system_init.o
 .debug_abbrev  0x00000afa      0x160 build/boostv1/production/_ext/208863783/system_interrupt.o
 .debug_abbrev  0x00000c5a       0xa2 build/boostv1/production/_ext/208863783/system_exceptions.o
 .debug_abbrev  0x00000cfc       0xc3 build/boostv1/production/_ext/208863783/system_tasks.o
 .debug_abbrev  0x00000dbf       0xb2 build/boostv1/production/_ext/1360937237/app.o
 .debug_abbrev  0x00000e71       0x93 build/boostv1/production/_ext/1360937237/main.o
 .debug_abbrev  0x00000f04      0x116 build/boostv1/production/_ext/1360937237/delay.o
 .debug_abbrev  0x0000101a      0x45f build/boostv1/production/_ext/1390999610/drv_gfx_lcc_int_pe.o
 .debug_abbrev  0x00001479      0x4a1 build/boostv1/production/_ext/185269848/drv_tmr.o
 .debug_abbrev  0x0000191a      0x38a build/boostv1/production/_ext/1945137225/drv_adc10bit.o
 .debug_abbrev  0x00001ca4      0x2cb build/boostv1/production/_ext/386020355/gfx.o
 .debug_abbrev  0x00001f6f      0x485 build/boostv1/production/_ext/386020355/gfx_primitive.o
 .debug_abbrev  0x000023f4      0x27e build/boostv1/production/_ext/1271179505/sys_devcon.o
 .debug_abbrev  0x00002672      0x21d build/boostv1/production/_ext/1271179505/sys_devcon_pic32mz.o
 .debug_abbrev  0x0000288f      0x3df build/boostv1/production/_ext/65930274/sys_dma.o
 .debug_abbrev  0x00002c6e      0x1c3 build/boostv1/production/_ext/122796885/sys_int_pic32.o
 .debug_abbrev  0x00002e31      0x263 build/boostv1/production/_ext/77319752/sys_ports.o
 .debug_abbrev  0x00003094      0x4cd build/boostv1/production/_ext/1264926591/sys_tmr.o
 .debug_abbrev  0x00003561      0x206 build/boostv1/production/_ext/846513563/sys_touch.o
 .debug_abbrev  0x00003767      0x138 c:/program files (x86)/microchip/xc32/v1.40/bin/bin/../../lib/gcc/pic32mx/4.8.3\libgcc.a(_udivdi3.o)
 .debug_abbrev  0x0000389f       0x62 c:/program files (x86)/microchip/xc32/v1.40/bin/bin/../../lib/gcc/pic32mx/4.8.3\libgcc.a(floatunsisf.o)
 .debug_abbrev  0x00003901       0x28 c:/program files (x86)/microchip/xc32/v1.40/bin/bin/../../lib/gcc/pic32mx/4.8.3/../../../../pic32mx/lib\libpic32.a(default-bootstrap-exception-handler.o)
 .debug_abbrev  0x00003929       0x28 c:/program files (x86)/microchip/xc32/v1.40/bin/bin/../../lib/gcc/pic32mx/4.8.3/../../../../pic32mx/lib\libpic32.a(default-on-reset.o)
 .debug_abbrev  0x00003951       0x28 c:/program files (x86)/microchip/xc32/v1.40/bin/bin/../../lib/gcc/pic32mx/4.8.3/../../../../pic32mx/lib\libpic32.a(default-on-bootstrap.o)
 .debug_abbrev  0x00003979       0x28 c:/program files (x86)/microchip/xc32/v1.40/bin/bin/../../lib/gcc/pic32mx/4.8.3/../../../../pic32mx/lib\libpic32.a(defaultinterrupt.o)
 .debug_abbrev  0x000039a1       0x28 c:/program files (x86)/microchip/xc32/v1.40/bin/bin/../../lib/gcc/pic32mx/4.8.3/../../../../pic32mx/lib\libpic32.a(default-cache-err-exception-handler.o)
 .debug_abbrev  0x000039c9       0x28 c:/program files (x86)/microchip/xc32/v1.40/bin/bin/../../lib/gcc/pic32mx/4.8.3/../../../../pic32mx/lib\libpic32.a(default-simple-tlb-refill-exception-handler.o)

.debug_line     0x00000000     0x94b4
 *(.debug_line)
 .debug_line    0x00000000      0x96d build/boostv1/production/_ext/2140773153/drv_i2c_static.o
 .debug_line    0x0000096d      0x45c build/boostv1/production/_ext/1464490010/drv_pmp_static.o
 .debug_line    0x00000dc9      0x42e build/boostv1/production/_ext/1526535504/sys_clk_static.o
 .debug_line    0x000011f7      0x41e build/boostv1/production/_ext/385613664/sys_ports_static.o
 .debug_line    0x00001615      0x868 build/boostv1/production/_ext/208863783/system_init.o
 .debug_line    0x00001e7d      0x3a0 build/boostv1/production/_ext/208863783/system_interrupt.o
 .debug_line    0x0000221d      0x17e build/boostv1/production/_ext/208863783/system_exceptions.o
 .debug_line    0x0000239b      0x38f build/boostv1/production/_ext/208863783/system_tasks.o
 .debug_line    0x0000272a      0x171 build/boostv1/production/_ext/1360937237/app.o
 .debug_line    0x0000289b       0xb1 build/boostv1/production/_ext/1360937237/main.o
 .debug_line    0x0000294c      0x122 build/boostv1/production/_ext/1360937237/delay.o
 .debug_line    0x00002a6e      0xa12 build/boostv1/production/_ext/1390999610/drv_gfx_lcc_int_pe.o
 .debug_line    0x00003480     0x1478 build/boostv1/production/_ext/185269848/drv_tmr.o
 .debug_line    0x000048f8      0x4f2 build/boostv1/production/_ext/1945137225/drv_adc10bit.o
 .debug_line    0x00004dea      0x220 build/boostv1/production/_ext/386020355/gfx.o
 .debug_line    0x0000500a     0x1151 build/boostv1/production/_ext/386020355/gfx_primitive.o
 .debug_line    0x0000615b      0x5ce build/boostv1/production/_ext/1271179505/sys_devcon.o
 .debug_line    0x00006729      0x58b build/boostv1/production/_ext/1271179505/sys_devcon_pic32mz.o
 .debug_line    0x00006cb4      0xdf5 build/boostv1/production/_ext/65930274/sys_dma.o
 .debug_line    0x00007aa9      0x390 build/boostv1/production/_ext/122796885/sys_int_pic32.o
 .debug_line    0x00007e39      0x842 build/boostv1/production/_ext/77319752/sys_ports.o
 .debug_line    0x0000867b      0x5d9 build/boostv1/production/_ext/1264926591/sys_tmr.o
 .debug_line    0x00008c54      0x37a build/boostv1/production/_ext/846513563/sys_touch.o
 .debug_line    0x00008fce       0xed c:/program files (x86)/microchip/xc32/v1.40/bin/bin/../../lib/gcc/pic32mx/4.8.3\libgcc.a(_udivdi3.o)
 .debug_line    0x000090bb       0x8a c:/program files (x86)/microchip/xc32/v1.40/bin/bin/../../lib/gcc/pic32mx/4.8.3\libgcc.a(floatunsisf.o)
 .debug_line    0x00009145       0x97 c:/program files (x86)/microchip/xc32/v1.40/bin/bin/../../lib/gcc/pic32mx/4.8.3/../../../../pic32mx/lib\libpic32.a(default-bootstrap-exception-handler.o)
 .debug_line    0x000091dc       0x84 c:/program files (x86)/microchip/xc32/v1.40/bin/bin/../../lib/gcc/pic32mx/4.8.3/../../../../pic32mx/lib\libpic32.a(default-on-reset.o)
 .debug_line    0x00009260       0x88 c:/program files (x86)/microchip/xc32/v1.40/bin/bin/../../lib/gcc/pic32mx/4.8.3/../../../../pic32mx/lib\libpic32.a(default-on-bootstrap.o)
 .debug_line    0x000092e8       0x96 c:/program files (x86)/microchip/xc32/v1.40/bin/bin/../../lib/gcc/pic32mx/4.8.3/../../../../pic32mx/lib\libpic32.a(defaultinterrupt.o)
 .debug_line    0x0000937e       0x97 c:/program files (x86)/microchip/xc32/v1.40/bin/bin/../../lib/gcc/pic32mx/4.8.3/../../../../pic32mx/lib\libpic32.a(default-cache-err-exception-handler.o)
 .debug_line    0x00009415       0x9f c:/program files (x86)/microchip/xc32/v1.40/bin/bin/../../lib/gcc/pic32mx/4.8.3/../../../../pic32mx/lib\libpic32.a(default-simple-tlb-refill-exception-handler.o)

.debug_frame    0x00000000     0x1e80
 *(.debug_frame)
 .debug_frame   0x00000000      0x154 build/boostv1/production/_ext/2140773153/drv_i2c_static.o
 .debug_frame   0x00000154       0x60 build/boostv1/production/_ext/1464490010/drv_pmp_static.o
 .debug_frame   0x000001b4       0x58 build/boostv1/production/_ext/1526535504/sys_clk_static.o
 .debug_frame   0x0000020c       0x20 build/boostv1/production/_ext/385613664/sys_ports_static.o
 .debug_frame   0x0000022c       0x2c build/boostv1/production/_ext/208863783/system_init.o
 .debug_frame   0x00000258       0xf0 build/boostv1/production/_ext/208863783/system_interrupt.o
 .debug_frame   0x00000348       0x28 build/boostv1/production/_ext/208863783/system_exceptions.o
 .debug_frame   0x00000370       0x28 build/boostv1/production/_ext/208863783/system_tasks.o
 .debug_frame   0x00000398       0x30 build/boostv1/production/_ext/1360937237/app.o
 .debug_frame   0x000003c8       0x28 build/boostv1/production/_ext/1360937237/main.o
 .debug_frame   0x000003f0       0x90 build/boostv1/production/_ext/1360937237/delay.o
 .debug_frame   0x00000480      0x124 build/boostv1/production/_ext/1390999610/drv_gfx_lcc_int_pe.o
 .debug_frame   0x000005a4      0x3bc build/boostv1/production/_ext/185269848/drv_tmr.o
 .debug_frame   0x00000960      0x128 build/boostv1/production/_ext/1945137225/drv_adc10bit.o
 .debug_frame   0x00000a88       0x94 build/boostv1/production/_ext/386020355/gfx.o
 .debug_frame   0x00000b1c      0x838 build/boostv1/production/_ext/386020355/gfx_primitive.o
 .debug_frame   0x00001354       0xe8 build/boostv1/production/_ext/1271179505/sys_devcon.o
 .debug_frame   0x0000143c      0x220 build/boostv1/production/_ext/1271179505/sys_devcon_pic32mz.o
 .debug_frame   0x0000165c      0x1fc build/boostv1/production/_ext/65930274/sys_dma.o
 .debug_frame   0x00001858       0x90 build/boostv1/production/_ext/122796885/sys_int_pic32.o
 .debug_frame   0x000018e8      0x1d0 build/boostv1/production/_ext/77319752/sys_ports.o
 .debug_frame   0x00001ab8      0x210 build/boostv1/production/_ext/1264926591/sys_tmr.o
 .debug_frame   0x00001cc8       0x8c build/boostv1/production/_ext/846513563/sys_touch.o
 .debug_frame   0x00001d54       0x20 c:/program files (x86)/microchip/xc32/v1.40/bin/bin/../../lib/gcc/pic32mx/4.8.3\libgcc.a(_udivdi3.o)
 .debug_frame   0x00001d74       0x28 c:/program files (x86)/microchip/xc32/v1.40/bin/bin/../../lib/gcc/pic32mx/4.8.3\libgcc.a(floatunsisf.o)
 .debug_frame   0x00001d9c       0x2c c:/program files (x86)/microchip/xc32/v1.40/bin/bin/../../lib/gcc/pic32mx/4.8.3/../../../../pic32mx/lib\libpic32.a(default-bootstrap-exception-handler.o)
 .debug_frame   0x00001dc8       0x20 c:/program files (x86)/microchip/xc32/v1.40/bin/bin/../../lib/gcc/pic32mx/4.8.3/../../../../pic32mx/lib\libpic32.a(default-on-reset.o)
 .debug_frame   0x00001de8       0x20 c:/program files (x86)/microchip/xc32/v1.40/bin/bin/../../lib/gcc/pic32mx/4.8.3/../../../../pic32mx/lib\libpic32.a(default-on-bootstrap.o)
 .debug_frame   0x00001e08       0x20 c:/program files (x86)/microchip/xc32/v1.40/bin/bin/../../lib/gcc/pic32mx/4.8.3/../../../../pic32mx/lib\libpic32.a(defaultinterrupt.o)
 .debug_frame   0x00001e28       0x2c c:/program files (x86)/microchip/xc32/v1.40/bin/bin/../../lib/gcc/pic32mx/4.8.3/../../../../pic32mx/lib\libpic32.a(default-cache-err-exception-handler.o)
 .debug_frame   0x00001e54       0x2c c:/program files (x86)/microchip/xc32/v1.40/bin/bin/../../lib/gcc/pic32mx/4.8.3/../../../../pic32mx/lib\libpic32.a(default-simple-tlb-refill-exception-handler.o)

.debug_str      0x00000000      0x8b5
 *(.debug_str)
 .debug_str     0x00000000       0x1e build/boostv1/production/_ext/2140773153/drv_i2c_static.o
 .debug_str     0x0000001e       0x49 build/boostv1/production/_ext/1464490010/drv_pmp_static.o
 .debug_str     0x00000067       0x46 build/boostv1/production/_ext/1526535504/sys_clk_static.o
 .debug_str     0x000000ad       0x1c build/boostv1/production/_ext/385613664/sys_ports_static.o
 .debug_str     0x000000c9       0x88 build/boostv1/production/_ext/208863783/system_init.o
 .debug_str     0x00000151        0x0 build/boostv1/production/_ext/208863783/system_interrupt.o
 .debug_str     0x00000151        0x0 build/boostv1/production/_ext/208863783/system_exceptions.o
 .debug_str     0x00000151        0x0 build/boostv1/production/_ext/208863783/system_tasks.o
 .debug_str     0x00000151        0x0 build/boostv1/production/_ext/1360937237/app.o
 .debug_str     0x00000151        0x0 build/boostv1/production/_ext/1360937237/main.o
 .debug_str     0x00000151        0x0 build/boostv1/production/_ext/1360937237/delay.o
 .debug_str     0x00000151      0x171 build/boostv1/production/_ext/1390999610/drv_gfx_lcc_int_pe.o
 .debug_str     0x000002c2       0xd5 build/boostv1/production/_ext/185269848/drv_tmr.o
 .debug_str     0x00000397       0x5a build/boostv1/production/_ext/1945137225/drv_adc10bit.o
 .debug_str     0x000003f1       0x36 build/boostv1/production/_ext/386020355/gfx.o
 .debug_str     0x00000427      0x1a0 build/boostv1/production/_ext/386020355/gfx_primitive.o
 .debug_str     0x000005c7       0x16 build/boostv1/production/_ext/1271179505/sys_devcon.o
 .debug_str     0x000005dd       0x1a build/boostv1/production/_ext/1271179505/sys_devcon_pic32mz.o
 .debug_str     0x000005f7      0x170 build/boostv1/production/_ext/65930274/sys_dma.o
 .debug_str     0x00000767       0x2d build/boostv1/production/_ext/122796885/sys_int_pic32.o
 .debug_str     0x00000794       0x98 build/boostv1/production/_ext/77319752/sys_ports.o
 .debug_str     0x0000082c       0x7d build/boostv1/production/_ext/1264926591/sys_tmr.o
 .debug_str     0x000008a9        0xc build/boostv1/production/_ext/846513563/sys_touch.o
 .debug_str     0x000008b5        0x0 c:/program files (x86)/microchip/xc32/v1.40/bin/bin/../../lib/gcc/pic32mx/4.8.3\libgcc.a(_udivdi3.o)
 .debug_str     0x000008b5        0x0 c:/program files (x86)/microchip/xc32/v1.40/bin/bin/../../lib/gcc/pic32mx/4.8.3\libgcc.a(floatunsisf.o)
 .debug_str     0x000008b5        0x0 c:/program files (x86)/microchip/xc32/v1.40/bin/bin/../../lib/gcc/pic32mx/4.8.3/../../../../pic32mx/lib\libpic32.a(default-bootstrap-exception-handler.o)
 .debug_str     0x000008b5        0x0 c:/program files (x86)/microchip/xc32/v1.40/bin/bin/../../lib/gcc/pic32mx/4.8.3/../../../../pic32mx/lib\libpic32.a(default-on-reset.o)
 .debug_str     0x000008b5        0x0 c:/program files (x86)/microchip/xc32/v1.40/bin/bin/../../lib/gcc/pic32mx/4.8.3/../../../../pic32mx/lib\libpic32.a(default-on-bootstrap.o)
 .debug_str     0x000008b5        0x0 c:/program files (x86)/microchip/xc32/v1.40/bin/bin/../../lib/gcc/pic32mx/4.8.3/../../../../pic32mx/lib\libpic32.a(defaultinterrupt.o)
 .debug_str     0x000008b5        0x0 c:/program files (x86)/microchip/xc32/v1.40/bin/bin/../../lib/gcc/pic32mx/4.8.3/../../../../pic32mx/lib\libpic32.a(default-cache-err-exception-handler.o)
 .debug_str     0x000008b5        0x0 c:/program files (x86)/microchip/xc32/v1.40/bin/bin/../../lib/gcc/pic32mx/4.8.3/../../../../pic32mx/lib\libpic32.a(default-simple-tlb-refill-exception-handler.o)

.debug_loc      0x00000000     0xed96
 *(.debug_loc)
 .debug_loc     0x00000000      0x196 build/boostv1/production/_ext/2140773153/drv_i2c_static.o
 .debug_loc     0x00000196       0xa5 build/boostv1/production/_ext/1464490010/drv_pmp_static.o
 .debug_loc     0x0000023b       0x40 build/boostv1/production/_ext/1526535504/sys_clk_static.o
 .debug_loc     0x0000027b       0x21 build/boostv1/production/_ext/208863783/system_init.o
 .debug_loc     0x0000029c      0x105 build/boostv1/production/_ext/1360937237/delay.o
 .debug_loc     0x000003a1      0x88b build/boostv1/production/_ext/1390999610/drv_gfx_lcc_int_pe.o
 .debug_loc     0x00000c2c     0x4833 build/boostv1/production/_ext/185269848/drv_tmr.o
 .debug_loc     0x0000545f      0x37b build/boostv1/production/_ext/1945137225/drv_adc10bit.o
 .debug_loc     0x000057da      0x1e7 build/boostv1/production/_ext/386020355/gfx.o
 .debug_loc     0x000059c1     0x4c0b build/boostv1/production/_ext/386020355/gfx_primitive.o
 .debug_loc     0x0000a5cc       0xf0 build/boostv1/production/_ext/1271179505/sys_devcon.o
 .debug_loc     0x0000a6bc      0x3ed build/boostv1/production/_ext/1271179505/sys_devcon_pic32mz.o
 .debug_loc     0x0000aaa9     0x1848 build/boostv1/production/_ext/65930274/sys_dma.o
 .debug_loc     0x0000c2f1       0x8d build/boostv1/production/_ext/122796885/sys_int_pic32.o
 .debug_loc     0x0000c37e      0xea2 build/boostv1/production/_ext/77319752/sys_ports.o
 .debug_loc     0x0000d220      0xea8 build/boostv1/production/_ext/1264926591/sys_tmr.o
 .debug_loc     0x0000e0c8      0x1f0 build/boostv1/production/_ext/846513563/sys_touch.o
 .debug_loc     0x0000e2b8      0xa6a c:/program files (x86)/microchip/xc32/v1.40/bin/bin/../../lib/gcc/pic32mx/4.8.3\libgcc.a(_udivdi3.o)
 .debug_loc     0x0000ed22       0x74 c:/program files (x86)/microchip/xc32/v1.40/bin/bin/../../lib/gcc/pic32mx/4.8.3\libgcc.a(floatunsisf.o)

.debug_macinfo
 *(.debug_macinfo)

.debug_weaknames
 *(.debug_weaknames)

.debug_funcnames
 *(.debug_funcnames)

.debug_typenames
 *(.debug_typenames)

.debug_varnames
 *(.debug_varnames)

.debug_pubtypes
 *(.debug_pubtypes)

.debug_ranges   0x00000000     0x17a0
 *(.debug_ranges)
 .debug_ranges  0x00000000       0x98 build/boostv1/production/_ext/2140773153/drv_i2c_static.o
 .debug_ranges  0x00000098       0x30 build/boostv1/production/_ext/1464490010/drv_pmp_static.o
 .debug_ranges  0x000000c8       0x28 build/boostv1/production/_ext/1526535504/sys_clk_static.o
 .debug_ranges  0x000000f0       0x10 build/boostv1/production/_ext/385613664/sys_ports_static.o
 .debug_ranges  0x00000100       0x10 build/boostv1/production/_ext/208863783/system_init.o
 .debug_ranges  0x00000110       0x18 build/boostv1/production/_ext/208863783/system_interrupt.o
 .debug_ranges  0x00000128       0x10 build/boostv1/production/_ext/208863783/system_exceptions.o
 .debug_ranges  0x00000138       0x10 build/boostv1/production/_ext/208863783/system_tasks.o
 .debug_ranges  0x00000148       0x18 build/boostv1/production/_ext/1360937237/app.o
 .debug_ranges  0x00000160       0x10 build/boostv1/production/_ext/1360937237/main.o
 .debug_ranges  0x00000170       0x30 build/boostv1/production/_ext/1360937237/delay.o
 .debug_ranges  0x000001a0       0xc8 build/boostv1/production/_ext/1390999610/drv_gfx_lcc_int_pe.o
 .debug_ranges  0x00000268      0x9b8 build/boostv1/production/_ext/185269848/drv_tmr.o
 .debug_ranges  0x00000c20       0x88 build/boostv1/production/_ext/1945137225/drv_adc10bit.o
 .debug_ranges  0x00000ca8       0x38 build/boostv1/production/_ext/386020355/gfx.o
 .debug_ranges  0x00000ce0      0x358 build/boostv1/production/_ext/386020355/gfx_primitive.o
 .debug_ranges  0x00001038       0x68 build/boostv1/production/_ext/1271179505/sys_devcon.o
 .debug_ranges  0x000010a0       0xd8 build/boostv1/production/_ext/1271179505/sys_devcon_pic32mz.o
 .debug_ranges  0x00001178      0x250 build/boostv1/production/_ext/65930274/sys_dma.o
 .debug_ranges  0x000013c8       0x50 build/boostv1/production/_ext/122796885/sys_int_pic32.o
 .debug_ranges  0x00001418       0xe8 build/boostv1/production/_ext/77319752/sys_ports.o
 .debug_ranges  0x00001500      0x178 build/boostv1/production/_ext/1264926591/sys_tmr.o
 .debug_ranges  0x00001678       0x30 build/boostv1/production/_ext/846513563/sys_touch.o
 .debug_ranges  0x000016a8       0x98 c:/program files (x86)/microchip/xc32/v1.40/bin/bin/../../lib/gcc/pic32mx/4.8.3\libgcc.a(_udivdi3.o)
 .debug_ranges  0x00001740       0x10 c:/program files (x86)/microchip/xc32/v1.40/bin/bin/../../lib/gcc/pic32mx/4.8.3/../../../../pic32mx/lib\libpic32.a(default-bootstrap-exception-handler.o)
 .debug_ranges  0x00001750       0x10 c:/program files (x86)/microchip/xc32/v1.40/bin/bin/../../lib/gcc/pic32mx/4.8.3/../../../../pic32mx/lib\libpic32.a(default-on-reset.o)
 .debug_ranges  0x00001760       0x10 c:/program files (x86)/microchip/xc32/v1.40/bin/bin/../../lib/gcc/pic32mx/4.8.3/../../../../pic32mx/lib\libpic32.a(default-on-bootstrap.o)
 .debug_ranges  0x00001770       0x10 c:/program files (x86)/microchip/xc32/v1.40/bin/bin/../../lib/gcc/pic32mx/4.8.3/../../../../pic32mx/lib\libpic32.a(defaultinterrupt.o)
 .debug_ranges  0x00001780       0x10 c:/program files (x86)/microchip/xc32/v1.40/bin/bin/../../lib/gcc/pic32mx/4.8.3/../../../../pic32mx/lib\libpic32.a(default-cache-err-exception-handler.o)
 .debug_ranges  0x00001790       0x10 c:/program files (x86)/microchip/xc32/v1.40/bin/bin/../../lib/gcc/pic32mx/4.8.3/../../../../pic32mx/lib\libpic32.a(default-simple-tlb-refill-exception-handler.o)

.gnu.attributes
                0x00000000       0x10
 *(.gnu.attributes)
 .gnu.attributes
                0x00000000       0x10 build/boostv1/production/_ext/2140773153/drv_i2c_static.o
 .gnu.attributes
                0x00000010       0x10 build/boostv1/production/_ext/1464490010/drv_pmp_static.o
 .gnu.attributes
                0x00000020       0x10 build/boostv1/production/_ext/1526535504/sys_clk_static.o
 .gnu.attributes
                0x00000030       0x10 build/boostv1/production/_ext/385613664/sys_ports_static.o
 .gnu.attributes
                0x00000040       0x10 build/boostv1/production/_ext/208863783/system_init.o
 .gnu.attributes
                0x00000050       0x10 build/boostv1/production/_ext/208863783/system_interrupt.o
 .gnu.attributes
                0x00000060       0x10 build/boostv1/production/_ext/208863783/system_exceptions.o
 .gnu.attributes
                0x00000070       0x10 build/boostv1/production/_ext/208863783/system_tasks.o
 .gnu.attributes
                0x00000080       0x10 build/boostv1/production/_ext/1360937237/app.o
 .gnu.attributes
                0x00000090       0x10 build/boostv1/production/_ext/1360937237/main.o
 .gnu.attributes
                0x000000a0       0x10 build/boostv1/production/_ext/1360937237/delay.o
 .gnu.attributes
                0x000000b0       0x10 build/boostv1/production/_ext/1390999610/drv_gfx_lcc_int_pe.o
 .gnu.attributes
                0x000000c0       0x10 build/boostv1/production/_ext/185269848/drv_tmr.o
 .gnu.attributes
                0x000000d0       0x10 build/boostv1/production/_ext/1945137225/drv_adc10bit.o
 .gnu.attributes
                0x000000e0       0x10 build/boostv1/production/_ext/386020355/gfx.o
 .gnu.attributes
                0x000000f0       0x10 build/boostv1/production/_ext/386020355/gfx_primitive.o
 .gnu.attributes
                0x00000100       0x10 build/boostv1/production/_ext/1271179505/sys_devcon.o
 .gnu.attributes
                0x00000110       0x10 build/boostv1/production/_ext/1271179505/sys_devcon_pic32mz.o
 .gnu.attributes
                0x00000120       0x10 build/boostv1/production/_ext/65930274/sys_dma.o
 .gnu.attributes
                0x00000130       0x10 build/boostv1/production/_ext/122796885/sys_int_pic32.o
 .gnu.attributes
                0x00000140       0x10 build/boostv1/production/_ext/77319752/sys_ports.o
 .gnu.attributes
                0x00000150       0x10 build/boostv1/production/_ext/1264926591/sys_tmr.o
 .gnu.attributes
                0x00000160       0x10 build/boostv1/production/_ext/846513563/sys_touch.o
 .gnu.attributes
                0x00000170       0x10 c:/program files (x86)/microchip/xc32/v1.40/bin/bin/../../lib/gcc/pic32mx/4.8.3\libgcc.a(_udivdi3.o)
 .gnu.attributes
                0x00000180       0x10 c:/program files (x86)/microchip/xc32/v1.40/bin/bin/../../lib/gcc/pic32mx/4.8.3\libgcc.a(floatunsisf.o)
 .gnu.attributes
                0x00000190       0x10 c:/program files (x86)/microchip/xc32/v1.40/bin/bin/../../lib/gcc/pic32mx/4.8.3/../../../../pic32mx/lib\libpic32.a(default-bootstrap-exception-handler.o)
 .gnu.attributes
                0x000001a0       0x10 c:/program files (x86)/microchip/xc32/v1.40/bin/bin/../../lib/gcc/pic32mx/4.8.3/../../../../pic32mx/lib\libpic32.a(default-on-reset.o)
 .gnu.attributes
                0x000001b0       0x10 c:/program files (x86)/microchip/xc32/v1.40/bin/bin/../../lib/gcc/pic32mx/4.8.3/../../../../pic32mx/lib\libpic32.a(default-on-bootstrap.o)
 .gnu.attributes
                0x000001c0       0x10 c:/program files (x86)/microchip/xc32/v1.40/bin/bin/../../lib/gcc/pic32mx/4.8.3/../../../../pic32mx/lib\libpic32.a(defaultinterrupt.o)
 .gnu.attributes
                0x000001d0       0x10 c:/program files (x86)/microchip/xc32/v1.40/bin/bin/../../lib/gcc/pic32mx/4.8.3/../../../../pic32mx/lib\libpic32.a(default-cache-err-exception-handler.o)
 .gnu.attributes
                0x000001e0       0x10 c:/program files (x86)/microchip/xc32/v1.40/bin/bin/../../lib/gcc/pic32mx/4.8.3/../../../../pic32mx/lib\libpic32.a(default-simple-tlb-refill-exception-handler.o)
                0x9d000000                PROVIDE (__pic32_init_cache_program_base_addr, 0x9d000000)
                0x80000000                PROVIDE (__pic32_init_cache_data_base_addr, 0x80000000)
                0xd0000000                PROVIDE (__pic32_init_sqi_kseg2_virtual_base_addr, 0xd0000000)
                0x30000000                PROVIDE (__pic32_init_sqi_kseg2_physical_base_addr, 0x30000000)
                0x0000001f                PROVIDE (__pic32_init_sqi_kseg2_entrylo0_bitset, 0x1f)
                0xd0000000                __pic32_tlb_0_entryhi = __pic32_init_sqi_kseg2_virtual_base_addr
                0x00c0001f                __pic32_tlb_0_entrylo0 = ((__pic32_init_sqi_kseg2_physical_base_addr >> 0x6) | __pic32_init_sqi_kseg2_entrylo0_bitset)
                0x00c4001f                __pic32_tlb_0_entrylo1 = (__pic32_tlb_0_entrylo0 | ((__pic32_init_sqi_kseg2_physical_base_addr + 0x1000000) >> 0x6))
                0xd2000000                __pic32_tlb_1_entryhi = (__pic32_init_sqi_kseg2_virtual_base_addr + 0x2000000)
                0x00c8001f                __pic32_tlb_1_entrylo0 = (((__pic32_init_sqi_kseg2_physical_base_addr + 0x2000000) >> 0x6) | __pic32_init_sqi_kseg2_entrylo0_bitset)
                0x00cc001f                __pic32_tlb_1_entrylo1 = (__pic32_tlb_1_entrylo0 | 0x40000)
                0xf0000000                PROVIDE (__pic32_init_sqi_kseg3_virtual_base_addr, 0xf0000000)
                0x30000000                PROVIDE (__pic32_init_sqi_kseg3_physical_base_addr, 0x30000000)
                0x00000017                PROVIDE (__pic32_init_sqi_kseg3_entrylo0_bitset, 0x17)
                0xf0000000                __pic32_tlb_2_entryhi = __pic32_init_sqi_kseg3_virtual_base_addr
                0x00c00017                __pic32_tlb_2_entrylo0 = ((__pic32_init_sqi_kseg3_physical_base_addr >> 0x6) | __pic32_init_sqi_kseg3_entrylo0_bitset)
                0x00c40017                __pic32_tlb_2_entrylo1 = (__pic32_tlb_2_entrylo0 | ((__pic32_init_sqi_kseg3_physical_base_addr + 0x1000000) >> 0x6))
                0xf2000000                __pic32_tlb_3_entryhi = (__pic32_init_sqi_kseg3_virtual_base_addr + 0x2000000)
                0x00c80017                __pic32_tlb_3_entrylo0 = (((__pic32_init_sqi_kseg3_physical_base_addr + 0x2000000) >> 0x6) | __pic32_init_sqi_kseg3_entrylo0_bitset)
                0x00cc0017                __pic32_tlb_3_entrylo1 = (__pic32_tlb_3_entrylo0 | 0x40000)
                0xc0000000                PROVIDE (__pic32_init_ebi_kseg2_virtual_base_addr, 0xc0000000)
                0x20000000                PROVIDE (__pic32_init_ebi_kseg2_physical_base_addr, 0x20000000)
                0x0000001f                PROVIDE (__pic32_init_ebi_kseg2_entrylo0_bitset, 0x1f)
                0xc0000000                __pic32_tlb_4_entryhi = __pic32_init_ebi_kseg2_virtual_base_addr
                0x0080001f                __pic32_tlb_4_entrylo0 = ((__pic32_init_ebi_kseg2_physical_base_addr >> 0x6) | __pic32_init_ebi_kseg2_entrylo0_bitset)
                0x0084001f                __pic32_tlb_4_entrylo1 = (__pic32_tlb_4_entrylo0 | ((__pic32_init_ebi_kseg2_physical_base_addr + 0x1000000) >> 0x6))
                0xc2000000                __pic32_tlb_5_entryhi = (__pic32_init_ebi_kseg2_virtual_base_addr + 0x2000000)
                0x0088001f                __pic32_tlb_5_entrylo0 = (((__pic32_init_ebi_kseg2_physical_base_addr + 0x2000000) >> 0x6) | __pic32_init_ebi_kseg2_entrylo0_bitset)
                0x008c001f                __pic32_tlb_5_entrylo1 = (__pic32_tlb_5_entrylo0 | 0x40000)
                0xe0000000                PROVIDE (__pic32_init_ebi_kseg3_virtual_base_addr, 0xe0000000)
                0x20000000                PROVIDE (__pic32_init_ebi_kseg3_physical_base_addr, 0x20000000)
                0x00000017                PROVIDE (__pic32_init_ebi_kseg3_entrylo0_bitset, 0x17)
                0xe0000000                __pic32_tlb_6_entryhi = __pic32_init_ebi_kseg3_virtual_base_addr
                0x00800017                __pic32_tlb_6_entrylo0 = ((__pic32_init_ebi_kseg3_physical_base_addr >> 0x6) | __pic32_init_ebi_kseg3_entrylo0_bitset)
                0x00840017                __pic32_tlb_6_entrylo1 = (__pic32_tlb_6_entrylo0 | ((__pic32_init_ebi_kseg3_physical_base_addr + 0x1000000) >> 0x6))
                0xe2000000                __pic32_tlb_7_entryhi = (__pic32_init_ebi_kseg3_virtual_base_addr + 0x2000000)
                0x00880017                __pic32_tlb_7_entrylo0 = (((__pic32_init_ebi_kseg3_physical_base_addr + 0x2000000) >> 0x6) | __pic32_init_ebi_kseg3_entrylo0_bitset)
                0x008c0017                __pic32_tlb_7_entrylo1 = (__pic32_tlb_7_entrylo0 | 0x40000)

.tlb_init_values
                0xbfc0064c       0x60
                0xbfc0064c                . = ALIGN (0x4)
                0xbfc0064c                __pic32_tlb_init_values_begin = ABSOLUTE (.)
                0xbfc0064c        0x4 LONG 0xd0000000 __pic32_tlb_0_entryhi
                0xbfc00650        0x4 LONG 0xc0001f __pic32_tlb_0_entrylo0
                0xbfc00654        0x4 LONG 0xc4001f __pic32_tlb_0_entrylo1
                0xbfc00658        0x4 LONG 0xd2000000 __pic32_tlb_1_entryhi
                0xbfc0065c        0x4 LONG 0xc8001f __pic32_tlb_1_entrylo0
                0xbfc00660        0x4 LONG 0xcc001f __pic32_tlb_1_entrylo1
                0xbfc00664        0x4 LONG 0xf0000000 __pic32_tlb_2_entryhi
                0xbfc00668        0x4 LONG 0xc00017 __pic32_tlb_2_entrylo0
                0xbfc0066c        0x4 LONG 0xc40017 __pic32_tlb_2_entrylo1
                0xbfc00670        0x4 LONG 0xf2000000 __pic32_tlb_3_entryhi
                0xbfc00674        0x4 LONG 0xc80017 __pic32_tlb_3_entrylo0
                0xbfc00678        0x4 LONG 0xcc0017 __pic32_tlb_3_entrylo1
                0xbfc0067c        0x4 LONG 0xc0000000 __pic32_tlb_4_entryhi
                0xbfc00680        0x4 LONG 0x80001f __pic32_tlb_4_entrylo0
                0xbfc00684        0x4 LONG 0x84001f __pic32_tlb_4_entrylo1
                0xbfc00688        0x4 LONG 0xc2000000 __pic32_tlb_5_entryhi
                0xbfc0068c        0x4 LONG 0x88001f __pic32_tlb_5_entrylo0
                0xbfc00690        0x4 LONG 0x8c001f __pic32_tlb_5_entrylo1
                0xbfc00694        0x4 LONG 0xe0000000 __pic32_tlb_6_entryhi
                0xbfc00698        0x4 LONG 0x800017 __pic32_tlb_6_entrylo0
                0xbfc0069c        0x4 LONG 0x840017 __pic32_tlb_6_entrylo1
                0xbfc006a0        0x4 LONG 0xe2000000 __pic32_tlb_7_entryhi
                0xbfc006a4        0x4 LONG 0x880017 __pic32_tlb_7_entrylo0
                0xbfc006a8        0x4 LONG 0x8c0017 __pic32_tlb_7_entrylo1
                0xbfc006ac                __pic32_tlb_init_values_end = ABSOLUTE (.)
                0x00000008                __pic32_tlb_init_values_count = 0x8
LOAD c:/program files (x86)/microchip/xc32/v1.40/bin/bin/../../lib/gcc/pic32mx/4.8.3\libgcc.a
START GROUP
LOAD c:/program files (x86)/microchip/xc32/v1.40/bin/bin/../../lib/gcc/pic32mx/4.8.3/../../../../pic32mx/lib\libpic32.a
LOAD c:/program files (x86)/microchip/xc32/v1.40/bin/bin/../../lib/gcc/pic32mx/4.8.3/../../../../pic32mx/lib\libdebug.a
LOAD c:/program files (x86)/microchip/xc32/v1.40/bin/bin/../../lib/gcc/pic32mx/4.8.3/../../../../pic32mx/lib\libpic32.a
LOAD c:/program files (x86)/microchip/xc32/v1.40/bin/bin/../../lib/gcc/pic32mx/4.8.3/../../../../pic32mx/lib\libm.a
LOAD c:/program files (x86)/microchip/xc32/v1.40/bin/bin/../../lib/gcc/pic32mx/4.8.3/../../../../pic32mx/lib\libe.a
LOAD c:/program files (x86)/microchip/xc32/v1.40/bin/bin/../../lib/gcc/pic32mx/4.8.3/../../../../pic32mx/lib\libdspr2.a
LOAD c:/program files (x86)/microchip/xc32/v1.40/bin/bin/../../lib/gcc/pic32mx/4.8.3/../../../../pic32mx/lib\libdsp.a
LOAD c:/program files (x86)/microchip/xc32/v1.40/bin/bin/../../lib/gcc/pic32mx/4.8.3\libgcc.a
LOAD c:/program files (x86)/microchip/xc32/v1.40/bin/bin/../../lib/gcc/pic32mx/4.8.3/../../../../pic32mx/lib\libc.a
LOAD c:/program files (x86)/microchip/xc32/v1.40/bin/bin/../../lib/gcc/pic32mx/4.8.3/../../../../pic32mx/lib\libpic32.a
END GROUP
LOAD c:/program files (x86)/microchip/xc32/v1.40/bin/bin/../../lib/gcc/pic32mx/4.8.3\libgcc.a
OUTPUT(dist/boostv1/production/Boostv1.X.production.elf elf32-tradlittlemips)
LOAD stack
LOAD data_init

.reginfo        0x00000000       0x18
 .reginfo       0x00000000       0x18 c:/program files (x86)/microchip/xc32/v1.40/bin/bin/../../lib/gcc/pic32mx/4.8.3/../../../../pic32mx/lib/./proc/32MZ2048ECM100/crt0_mips32r2.o

.stack          0x80041830      0x400
 .stack         0x80041830      0x400 stack

.__vector_offset_BF810740_data
                0xbf810740       0xfc
 .__vector_offset_BF810740_data
                0xbf810740       0xfc c:/program files (x86)/microchip/xc32/v1.40/bin/bin/../../lib/gcc/pic32mx/4.8.3/../../../../pic32mx/lib/./proc/32MZ2048ECM100\vector_offset_init.o

.__vector_offset_BF810540_data
                0xbf810540       0xb4
 .__vector_offset_BF810540_data
                0xbf810540       0xb4 c:/program files (x86)/microchip/xc32/v1.40/bin/bin/../../lib/gcc/pic32mx/4.8.3/../../../../pic32mx/lib/./proc/32MZ2048ECM100\vector_offset_init.o

.__vector_offset_BF81062C_data
                0xbf81062c       0x8c
 .__vector_offset_BF81062C_data
                0xbf81062c       0x8c c:/program files (x86)/microchip/xc32/v1.40/bin/bin/../../lib/gcc/pic32mx/4.8.3/../../../../pic32mx/lib/./proc/32MZ2048ECM100\vector_offset_init.o

.__vector_offset_BF8106F4_data
                0xbf8106f4       0x40
 .__vector_offset_BF8106F4_data
                0xbf8106f4       0x40 c:/program files (x86)/microchip/xc32/v1.40/bin/bin/../../lib/gcc/pic32mx/4.8.3/../../../../pic32mx/lib/./proc/32MZ2048ECM100\vector_offset_init.o

.__vector_offset_BF8105F8_data
                0xbf8105f8       0x30
 .__vector_offset_BF8105F8_data
                0xbf8105f8       0x30 c:/program files (x86)/microchip/xc32/v1.40/bin/bin/../../lib/gcc/pic32mx/4.8.3/../../../../pic32mx/lib/./proc/32MZ2048ECM100\vector_offset_init.o

.__vector_offset_BF8106D8_data
                0xbf8106d8       0x18
 .__vector_offset_BF8106D8_data
                0xbf8106d8       0x18 c:/program files (x86)/microchip/xc32/v1.40/bin/bin/../../lib/gcc/pic32mx/4.8.3/../../../../pic32mx/lib/./proc/32MZ2048ECM100\vector_offset_init.o

.bss.frameBuffer
                0xa0000230    0x3fc00
 .bss.frameBuffer
                0xa0000230    0x3fc00 build/boostv1/production/_ext/208863783/system_init.o
                0xa0000230                frameBuffer

.bss            0x8003fe30      0x8b0
 .bss           0x8003fe30      0x85c build/boostv1/production/_ext/386020355/gfx_primitive.o
 .bss           0x8004068c       0x54 build/boostv1/production/_ext/1264926591/sys_tmr.o

.data           0x800406e0       0x4c
 .data          0x800406e0       0x4c build/boostv1/production/_ext/208863783/system_exceptions.o

.bss            0x8004072c       0x78
 .bss           0x8004072c       0x3c build/boostv1/production/_ext/185269848/drv_tmr.o
 .bss           0x80040768       0x3c build/boostv1/production/_ext/386020355/gfx.o

.data           0x800407a4       0x28
 .data          0x800407a4       0x28 build/boostv1/production/_ext/208863783/system_init.o
                0x800407a4                drvGfxInit

.bss            0x800407cc       0x44
 .bss           0x800407cc       0x28 build/boostv1/production/_ext/1390999610/drv_gfx_lcc_int_pe.o
 .bss           0x800407f4       0x1c build/boostv1/production/_ext/1945137225/drv_adc10bit.o

._debug_exception
                0xbfc00480       0x2c
 ._debug_exception
                0xbfc00480       0x2c c:/program files (x86)/microchip/xc32/v1.40/bin/bin/../../lib/gcc/pic32mx/4.8.3/../../../../pic32mx/lib\debug-exception-return.o
                0xbfc00480                __DbgExecReturn

.dinit          0x9d000258      0x4e0
 .dinit         0x9d000258      0x4e0 data_init

.text._PositionTouchDetect
                0x9d000738      0x348
 .text._PositionTouchDetect
                0x9d000738      0x348 build/boostv1/production/_ext/1945137225/drv_adc10bit.o
                0x9d000738                _PositionTouchDetect

.text.DRV_GFX_LCC_Initialize
                0x9d000a80      0x338
 .text.DRV_GFX_LCC_Initialize
                0x9d000a80      0x338 build/boostv1/production/_ext/1390999610/drv_gfx_lcc_int_pe.o
                0x9d000a80                DRV_GFX_LCC_Initialize

.text._DRV_TMR_ClockSourceSet
                0x9d000db8      0x2ec
 .text._DRV_TMR_ClockSourceSet
                0x9d000db8      0x2ec build/boostv1/production/_ext/185269848/drv_tmr.o

.text.DRV_TMR_Initialize
                0x9d0010a4      0x2bc
 .text.DRV_TMR_Initialize
                0x9d0010a4      0x2bc build/boostv1/production/_ext/185269848/drv_tmr.o
                0x9d0010a4                DRV_TMR_Initialize

.text.fpsubadd  0x9d001360      0x278
 .text.fpsubadd
                0x9d001360      0x278 c:/program files (x86)/microchip/xc32/v1.40/bin/bin/../../lib/gcc/pic32mx/4.8.3/../../../../pic32mx/lib\libm.a(fp32subadd.o)
                0x9d001360                __subsf3
                0x9d001360                fpsub
                0x9d001368                __addsf3
                0x9d001368                fpadd

.text.SYS_TMR_Tasks
                0x9d0015d8      0x254
 .text.SYS_TMR_Tasks
                0x9d0015d8      0x254 build/boostv1/production/_ext/1264926591/sys_tmr.o
                0x9d0015d8                SYS_TMR_Tasks

.text.DRV_TMR_CounterFrequencyGet
                0x9d00182c      0x250
 .text.DRV_TMR_CounterFrequencyGet
                0x9d00182c      0x250 build/boostv1/production/_ext/185269848/drv_tmr.o
                0x9d00182c                DRV_TMR_CounterFrequencyGet

.text._DRV_TMR_ClockPrescaleSet
                0x9d001a7c      0x248
 .text._DRV_TMR_ClockPrescaleSet
                0x9d001a7c      0x248 build/boostv1/production/_ext/185269848/drv_tmr.o

.text.DRV_GFX_LCC_DisplayRefresh
                0x9d001cc4      0x1fc
 .text.DRV_GFX_LCC_DisplayRefresh
                0x9d001cc4      0x1fc build/boostv1/production/_ext/1390999610/drv_gfx_lcc_int_pe.o
                0x9d001cc4                DRV_GFX_LCC_DisplayRefresh

.text.fp32mul   0x9d001ec0      0x1bc
 .text.fp32mul  0x9d001ec0      0x1bc c:/program files (x86)/microchip/xc32/v1.40/bin/bin/../../lib/gcc/pic32mx/4.8.3/../../../../pic32mx/lib\libm.a(fp32mul.o)
                0x9d001ec0                __mulsf3
                0x9d001ec0                fpmul

.text.SYS_DMA_ChannelSetup
                0x9d00207c      0x1b8
 .text.SYS_DMA_ChannelSetup
                0x9d00207c      0x1b8 build/boostv1/production/_ext/65930274/sys_dma.o
                0x9d00207c                SYS_DMA_ChannelSetup

.text.SYS_DMA_ChannelTransferAdd
                0x9d002234      0x1b8
 .text.SYS_DMA_ChannelTransferAdd
                0x9d002234      0x1b8 build/boostv1/production/_ext/65930274/sys_dma.o
                0x9d002234                SYS_DMA_ChannelTransferAdd

.text._IntHandlerDrvTmrInstance0
                0x9d0023ec      0x1a4
 .text._IntHandlerDrvTmrInstance0
                0x9d0023ec      0x1a4 build/boostv1/production/_ext/208863783/system_interrupt.o
                0x9d0023ec                _IntHandlerDrvTmrInstance0

.text._IntHandlerLCCRefresh
                0x9d002590      0x19c
 .text._IntHandlerLCCRefresh
                0x9d002590      0x19c build/boostv1/production/_ext/208863783/system_interrupt.o
                0x9d002590                _IntHandlerLCCRefresh

.text.DRV_TMR_Alarm16BitRegister
                0x9d00272c      0x190
 .text.DRV_TMR_Alarm16BitRegister
                0x9d00272c      0x190 build/boostv1/production/_ext/185269848/drv_tmr.o
                0x9d00272c                DRV_TMR_Alarm16BitRegister

.text._DRV_TMR_Resume
                0x9d0028bc      0x184
 .text._DRV_TMR_Resume
                0x9d0028bc      0x184 build/boostv1/production/_ext/185269848/drv_tmr.o

.text.GFX_PRIMITIVE_Open
                0x9d002a40      0x17c
 .text.GFX_PRIMITIVE_Open
                0x9d002a40      0x17c build/boostv1/production/_ext/386020355/gfx_primitive.o
                0x9d002a40                GFX_PRIMITIVE_Open

.text._DRV_TMR_Suspend
                0x9d002bbc      0x164
 .text._DRV_TMR_Suspend
                0x9d002bbc      0x164 build/boostv1/production/_ext/185269848/drv_tmr.o

.text.SYS_Initialize
                0x9d002d20      0x154
 .text.SYS_Initialize
                0x9d002d20      0x154 build/boostv1/production/_ext/208863783/system_init.o
                0x9d002d20                SYS_Initialize

.text._SYS_TMR_AlarmCallback
                0x9d002e74      0x14c
 .text._SYS_TMR_AlarmCallback
                0x9d002e74      0x14c build/boostv1/production/_ext/1264926591/sys_tmr.o

.text.SYS_DMA_Tasks
                0x9d002fc0      0x138
 .text.SYS_DMA_Tasks
                0x9d002fc0      0x138 build/boostv1/production/_ext/65930274/sys_dma.o
                0x9d002fc0                SYS_DMA_Tasks

.text.TouchCalculateCalPoints
                0x9d0030f8      0x128
 .text.TouchCalculateCalPoints
                0x9d0030f8      0x128 build/boostv1/production/_ext/1945137225/drv_adc10bit.o
                0x9d0030f8                TouchCalculateCalPoints

.text.SYS_CLK_Initialize
                0x9d003220      0x100
 .text.SYS_CLK_Initialize
                0x9d003220      0x100 build/boostv1/production/_ext/1526535504/sys_clk_static.o
                0x9d003220                SYS_CLK_Initialize

.text.SYS_DEVCON_PerformanceConfig
                0x9d003320       0xf4
 .text.SYS_DEVCON_PerformanceConfig
                0x9d003320       0xf4 build/boostv1/production/_ext/1271179505/sys_devcon_pic32mz.o
                0x9d003320                SYS_DEVCON_PerformanceConfig

.text.SYS_TOUCH_TouchMsgGet
                0x9d000010       0xe4
 .text.SYS_TOUCH_TouchMsgGet
                0x9d000010       0xe4 build/boostv1/production/_ext/846513563/sys_touch.o
                0x9d000010                SYS_TOUCH_TouchMsgGet

.rodata         0x9d003414       0xdc
 .rodata        0x9d003414       0xdc build/boostv1/production/_ext/208863783/system_exceptions.o

.text.general_exception
                0x9d0034f0       0xdc
 .text.general_exception
                0x9d0034f0       0xdc c:/program files (x86)/microchip/xc32/v1.40/bin/bin/../../lib/gcc/pic32mx/4.8.3/../../../../pic32mx/lib\libpic32.a(general-exception.o)
                0x9d0034f0                _general_exception_context

.text._cache_err_exception_context
                0x9d0035cc       0xd8
 .text._cache_err_exception_context
                0x9d0035cc       0xd8 c:/program files (x86)/microchip/xc32/v1.40/bin/bin/../../lib/gcc/pic32mx/4.8.3/../../../../pic32mx/lib\libpic32.a(cache-err-exception.o)
                0x9d0035cc                _cache_err_exception_context

.text.simple_tlb_refill_context
                0x9d0036a4       0xd8
 .text.simple_tlb_refill_context
                0x9d0036a4       0xd8 c:/program files (x86)/microchip/xc32/v1.40/bin/bin/../../lib/gcc/pic32mx/4.8.3/../../../../pic32mx/lib\libpic32.a(simple-tlb-refill-exception.o)
                0x9d0036a4                _simple_tlb_refill_exception_context

.text.DRV_TOUCH_ADC10BIT_Initialize
                0x9d00377c       0xd4
 .text.DRV_TOUCH_ADC10BIT_Initialize
                0x9d00377c       0xd4 build/boostv1/production/_ext/1945137225/drv_adc10bit.o
                0x9d00377c                DRV_TOUCH_ADC10BIT_Initialize

.rodata         0x9d003850       0xd0
 .rodata        0x9d003850       0xd0 build/boostv1/production/_ext/208863783/system_init.o
                0x9d003850                drvTmr0InitData
                0x9d00386c                sysTmrInitData
                0x9d003874                drvAdc10bitInitData
                0x9d0038a8                gfxInit0
                0x9d0038e4                sysDevconInit
                0x9d0038e8                sysDmaInit
                0x9d0038ec                sysTouchInit0

.text.DRV_TMR_Tasks_ISR
                0x9d003920       0xc8
 .text.DRV_TMR_Tasks_ISR
                0x9d003920       0xc8 build/boostv1/production/_ext/185269848/drv_tmr.o
                0x9d003920                DRV_TMR_Tasks_ISR

.text.SYS_TMR_Initialize
                0x9d0039e8       0xc8
 .text.SYS_TMR_Initialize
                0x9d0039e8       0xc8 build/boostv1/production/_ext/1264926591/sys_tmr.o
                0x9d0039e8                SYS_TMR_Initialize

.text.SYS_PORTS_Initialize
                0x9d003ab0       0xc4
 .text.SYS_PORTS_Initialize
                0x9d003ab0       0xc4 build/boostv1/production/_ext/385613664/sys_ports_static.o
                0x9d003ab0                SYS_PORTS_Initialize

.tlb.__pic32_tlb_init_ebi_sqi
                0x9d003b74       0xbc
 .tlb.__pic32_tlb_init_ebi_sqi
                0x9d003b74       0xbc c:/program files (x86)/microchip/xc32/v1.40/bin/bin/../../lib/gcc/pic32mx/4.8.3/../../../../pic32mx/lib\libpic32.a(pic32_init_tlb_ebi_sqi.o)
                0x9d003b74                __pic32_tlb_init_ebi_sqi

.text.SYS_TOUCH_Open
                0x9d003c30       0xa8
 .text.SYS_TOUCH_Open
                0x9d003c30       0xa8 build/boostv1/production/_ext/846513563/sys_touch.o
                0x9d003c30                SYS_TOUCH_Open

.text           0x9d003cd8       0xa8
 .text          0x9d003cd8       0xa8 c:/program files (x86)/microchip/xc32/v1.40/bin/bin/../../lib/gcc/pic32mx/4.8.3/../../../../pic32mx/lib\libpic32.a(memset.o)
                0x9d003cd8                memset

.text.DRV_I2C0_Initialize
                0x9d003d80       0x9c
 .text.DRV_I2C0_Initialize
                0x9d003d80       0x9c build/boostv1/production/_ext/2140773153/drv_i2c_static.o
                0x9d003d80                DRV_I2C0_Initialize

.text.DRV_PMP0_ModeConfig
                0x9d003e1c       0x98
 .text.DRV_PMP0_ModeConfig
                0x9d003e1c       0x98 build/boostv1/production/_ext/1464490010/drv_pmp_static.o
                0x9d003e1c                DRV_PMP0_ModeConfig

.text.DRV_GFX_LCC_PixelArrayPut
                0x9d003eb4       0x94
 .text.DRV_GFX_LCC_PixelArrayPut
                0x9d003eb4       0x94 build/boostv1/production/_ext/1390999610/drv_gfx_lcc_int_pe.o
                0x9d003eb4                DRV_GFX_LCC_PixelArrayPut

.text.DRV_GFX_LCC_BarFill
                0x9d003f48       0x8c
 .text.DRV_GFX_LCC_BarFill
                0x9d003f48       0x8c build/boostv1/production/_ext/1390999610/drv_gfx_lcc_int_pe.o
                0x9d003f48                DRV_GFX_LCC_BarFill

.text.GFX_Initialize
                0x9d003fd4       0x88
 .text.GFX_Initialize
                0x9d003fd4       0x88 build/boostv1/production/_ext/386020355/gfx.o
                0x9d003fd4                GFX_Initialize

.text.GFX_Open  0x9d00405c       0x88
 .text.GFX_Open
                0x9d00405c       0x88 build/boostv1/production/_ext/386020355/gfx.o
                0x9d00405c                GFX_Open

.text._DRV_TMR_ModuleObj
                0x9d0040e4       0x84
 .text._DRV_TMR_ModuleObj
                0x9d0040e4       0x84 build/boostv1/production/_ext/185269848/drv_tmr.o

.text.SYS_DMA_Initialize
                0x9d004168       0x7c
 .text.SYS_DMA_Initialize
                0x9d004168       0x7c build/boostv1/production/_ext/65930274/sys_dma.o
                0x9d004168                SYS_DMA_Initialize

.text.fptoul    0x9d0041e4       0x7c
 .text.fptoul   0x9d0041e4       0x7c c:/program files (x86)/microchip/xc32/v1.40/bin/bin/../../lib/gcc/pic32mx/4.8.3/../../../../pic32mx/lib\libm.a(fptoul.o)
                0x9d0041e4                fptoul
                0x9d0041e4                fptoui
                0x9d0041e4                __fixunssfsi

.text.SYS_TOUCH_Tasks
                0x9d000110       0x6c
 .text.SYS_TOUCH_Tasks
                0x9d000110       0x6c build/boostv1/production/_ext/846513563/sys_touch.o
                0x9d000110                SYS_TOUCH_Tasks

.text.DRV_GFX_LCC_Open
                0x9d000190       0x68
 .text.DRV_GFX_LCC_Open
                0x9d000190       0x68 build/boostv1/production/_ext/1390999610/drv_gfx_lcc_int_pe.o
                0x9d000190                DRV_GFX_LCC_Open

.text.DRV_TOUCH_ADC10BIT_Open
                0x9d004260       0x68
 .text.DRV_TOUCH_ADC10BIT_Open
                0x9d004260       0x68 build/boostv1/production/_ext/1945137225/drv_adc10bit.o
                0x9d004260                DRV_TOUCH_ADC10BIT_Open

.text.SYS_Tasks
                0x9d0042c8       0x64
 .text.SYS_Tasks
                0x9d0042c8       0x64 build/boostv1/production/_ext/208863783/system_tasks.o
                0x9d0042c8                SYS_Tasks

.text.DRV_GFX_LCC_InterfaceSet
                0x9d00432c       0x64
 .text.DRV_GFX_LCC_InterfaceSet
                0x9d00432c       0x64 build/boostv1/production/_ext/1390999610/drv_gfx_lcc_int_pe.o
                0x9d00432c                DRV_GFX_LCC_InterfaceSet

.text.DRV_TMR_AlarmDisable
                0x9d004390       0x64
 .text.DRV_TMR_AlarmDisable
                0x9d004390       0x64 build/boostv1/production/_ext/185269848/drv_tmr.o
                0x9d004390                DRV_TMR_AlarmDisable

.text.DRV_TMR_Start
                0x9d0043f4       0x64
 .text.DRV_TMR_Start
                0x9d0043f4       0x64 build/boostv1/production/_ext/185269848/drv_tmr.o
                0x9d0043f4                DRV_TMR_Start

.text.DRV_TMR_AlarmEnable
                0x9d004458       0x60
 .text.DRV_TMR_AlarmEnable
                0x9d004458       0x60 build/boostv1/production/_ext/185269848/drv_tmr.o
                0x9d004458                DRV_TMR_AlarmEnable

.text.sitofp    0x9d0044b8       0x60
 .text.sitofp   0x9d0044b8       0x60 c:/program files (x86)/microchip/xc32/v1.40/bin/bin/../../lib/gcc/pic32mx/4.8.3/../../../../pic32mx/lib\libm.a(sitofp.o)
                0x9d0044b8                sitofp
                0x9d0044b8                litofp
                0x9d0044b8                __floatsisf

.text.DRV_GFX_LCC_PixelArrayGet
                0x9d004518       0x5c
 .text.DRV_GFX_LCC_PixelArrayGet
                0x9d004518       0x5c build/boostv1/production/_ext/1390999610/drv_gfx_lcc_int_pe.o
                0x9d004518                DRV_GFX_LCC_PixelArrayGet

.text.DRV_TMR_Open
                0x9d004574       0x5c
 .text.DRV_TMR_Open
                0x9d004574       0x5c build/boostv1/production/_ext/185269848/drv_tmr.o
                0x9d004574                DRV_TMR_Open

.text.DRV_TOUCH_ADC10BIT_CalibrationSet
                0x9d0045d0       0x5c
 .text.DRV_TOUCH_ADC10BIT_CalibrationSet
                0x9d0045d0       0x5c build/boostv1/production/_ext/1945137225/drv_adc10bit.o
                0x9d0045d0                DRV_TOUCH_ADC10BIT_CalibrationSet

.text.SYS_DMA_ChannelAllocate
                0x9d00462c       0x5c
 .text.SYS_DMA_ChannelAllocate
                0x9d00462c       0x5c build/boostv1/production/_ext/65930274/sys_dma.o
                0x9d00462c                SYS_DMA_ChannelAllocate

.text.GFX_Tasks
                0x9d004688       0x58
 .text.GFX_Tasks
                0x9d004688       0x58 build/boostv1/production/_ext/386020355/gfx.o
                0x9d004688                GFX_Tasks

.text.SYS_DEVCON_SystemUnlock
                0x9d0046e0       0x58
 .text.SYS_DEVCON_SystemUnlock
                0x9d0046e0       0x58 build/boostv1/production/_ext/1271179505/sys_devcon.o
                0x9d0046e0                SYS_DEVCON_SystemUnlock

.text.SYS_TOUCH_Initialize
                0x9d004738       0x58
 .text.SYS_TOUCH_Initialize
                0x9d004738       0x58 build/boostv1/production/_ext/846513563/sys_touch.o
                0x9d004738                SYS_TOUCH_Initialize

.text.main_entry
                0x9d004790       0x54
 .text.main_entry
                0x9d004790       0x54 c:/program files (x86)/microchip/xc32/v1.40/bin/bin/../../lib/gcc/pic32mx/4.8.3/../../../../pic32mx/lib/./proc/32MZ2048ECM100/crt0_mips32r2.o
                0x9d0047c4                __crt0_exit

.text.DRV_GFX_LCC_SetPage
                0x9d0047e4       0x54
 .text.DRV_GFX_LCC_SetPage
                0x9d0047e4       0x54 build/boostv1/production/_ext/1390999610/drv_gfx_lcc_int_pe.o
                0x9d0047e4                DRV_GFX_LCC_SetPage

.text.SYS_INT_SourceDisable
                0x9d004838       0x54
 .text.SYS_INT_SourceDisable
                0x9d004838       0x54 build/boostv1/production/_ext/122796885/sys_int_pic32.o
                0x9d004838                SYS_INT_SourceDisable

.text           0x9d00488c       0x4c
 .text          0x9d00488c       0x4c c:/program files (x86)/microchip/xc32/v1.40/bin/bin/../../lib/gcc/pic32mx/4.8.3\libgcc.a(floatunsisf.o)
                0x9d00488c                __floatunsisf

.text.SYS_DEVCON_SystemLock
                0x9d0048d8       0x48
 .text.SYS_DEVCON_SystemLock
                0x9d0048d8       0x48 build/boostv1/production/_ext/1271179505/sys_devcon.o
                0x9d0048d8                SYS_DEVCON_SystemLock

.text._bootstrap_exception_handler
                0x9d004920       0x48
 .text._bootstrap_exception_handler
                0x9d004920       0x48 c:/program files (x86)/microchip/xc32/v1.40/bin/bin/../../lib/gcc/pic32mx/4.8.3/../../../../pic32mx/lib\libpic32.a(default-bootstrap-exception-handler.o)
                0x9d004920                _bootstrap_exception_handler

.text._cache_err_exception_handler
                0x9d004968       0x48
 .text._cache_err_exception_handler
                0x9d004968       0x48 c:/program files (x86)/microchip/xc32/v1.40/bin/bin/../../lib/gcc/pic32mx/4.8.3/../../../../pic32mx/lib\libpic32.a(default-cache-err-exception-handler.o)
                0x9d004968                _cache_err_exception_handler

.text._simple_tlb_refill_exception_handler
                0x9d0049b0       0x48
 .text._simple_tlb_refill_exception_handler
                0x9d0049b0       0x48 c:/program files (x86)/microchip/xc32/v1.40/bin/bin/../../lib/gcc/pic32mx/4.8.3/../../../../pic32mx/lib\libpic32.a(default-simple-tlb-refill-exception-handler.o)
                0x9d0049b0                _simple_tlb_refill_exception_handler

.text.GFX_PRIMITIVE_Initialize
                0x9d0049f8       0x44
 .text.GFX_PRIMITIVE_Initialize
                0x9d0049f8       0x44 build/boostv1/production/_ext/386020355/gfx_primitive.o
                0x9d0049f8                GFX_PRIMITIVE_Initialize

.text           0x9d004a3c       0x44
 .text          0x9d004a3c       0x44 c:/program files (x86)/microchip/xc32/v1.40/bin/bin/../../lib/gcc/pic32mx/4.8.3/../../../../pic32mx/lib\pic32_software_reset.o
                0x9d004a3c                __pic32_software_reset

.text._general_exception_handler
                0x9d004a80       0x3c
 .text._general_exception_handler
                0x9d004a80       0x3c build/boostv1/production/_ext/208863783/system_exceptions.o
                0x9d004a80                _general_exception_handler

.text.DRV_GFX_LCC_PixelPut
                0x9d004abc       0x3c
 .text.DRV_GFX_LCC_PixelPut
                0x9d004abc       0x3c build/boostv1/production/_ext/1390999610/drv_gfx_lcc_int_pe.o
                0x9d004abc                DRV_GFX_LCC_PixelPut

.text.SYS_DMA_ChannelEnable
                0x9d004af8       0x3c
 .text.SYS_DMA_ChannelEnable
                0x9d004af8       0x3c build/boostv1/production/_ext/65930274/sys_dma.o
                0x9d004af8                SYS_DMA_ChannelEnable

.text.SYS_DMA_ChannelForceStart
                0x9d004b34       0x3c
 .text.SYS_DMA_ChannelForceStart
                0x9d004b34       0x3c build/boostv1/production/_ext/65930274/sys_dma.o
                0x9d004b34                SYS_DMA_ChannelForceStart

.text.DRV_TOUCH_ADC10BIT_TouchGetX
                0x9d004b70       0x2c
 .text.DRV_TOUCH_ADC10BIT_TouchGetX
                0x9d004b70       0x2c build/boostv1/production/_ext/1945137225/drv_adc10bit.o
                0x9d004b70                DRV_TOUCH_ADC10BIT_TouchGetX

.text.DRV_TOUCH_ADC10BIT_TouchGetY
                0x9d004b9c       0x2c
 .text.DRV_TOUCH_ADC10BIT_TouchGetY
                0x9d004b9c       0x2c build/boostv1/production/_ext/1945137225/drv_adc10bit.o
                0x9d004b9c                DRV_TOUCH_ADC10BIT_TouchGetY

.text.SYS_CLK_PeripheralFrequencyGet
                0x9d004bc8       0x28
 .text.SYS_CLK_PeripheralFrequencyGet
                0x9d004bc8       0x28 build/boostv1/production/_ext/1526535504/sys_clk_static.o
                0x9d004bc8                SYS_CLK_PeripheralFrequencyGet

.text.main      0x9d004bf0       0x20
 .text.main     0x9d004bf0       0x20 build/boostv1/production/_ext/1360937237/main.o
                0x9d004bf0                main

.text.DRV_PMP0_Initialize
                0x9d004c10       0x1c
 .text.DRV_PMP0_Initialize
                0x9d004c10       0x1c build/boostv1/production/_ext/1464490010/drv_pmp_static.o
                0x9d004c10                DRV_PMP0_Initialize

.text.DRV_GFX_LCC_FrameBufferAddressSet
                0x9d004c2c       0x1c
 .text.DRV_GFX_LCC_FrameBufferAddressSet
                0x9d004c2c       0x1c build/boostv1/production/_ext/1390999610/drv_gfx_lcc_int_pe.o
                0x9d004c2c                DRV_GFX_LCC_FrameBufferAddressSet

.rodata         0x9d004c48       0x1c
 .rodata        0x9d004c48       0x1c build/boostv1/production/_ext/185269848/drv_tmr.o

.text.DRV_TOUCH_ADC10BIT_Tasks
                0x9d004c64       0x1c
 .text.DRV_TOUCH_ADC10BIT_Tasks
                0x9d004c64       0x1c build/boostv1/production/_ext/1945137225/drv_adc10bit.o
                0x9d004c64                DRV_TOUCH_ADC10BIT_Tasks

.text.SYS_DMA_Suspend
                0x9d004c80       0x18
 .text.SYS_DMA_Suspend
                0x9d004c80       0x18 build/boostv1/production/_ext/65930274/sys_dma.o
                0x9d004c80                SYS_DMA_Suspend

.text.SYS_DMA_Resume
                0x9d004c98       0x18
 .text.SYS_DMA_Resume
                0x9d004c98       0x18 build/boostv1/production/_ext/65930274/sys_dma.o
                0x9d004c98                SYS_DMA_Resume

.text.SYS_INT_Initialize
                0x9d004cb0       0x18
 .text.SYS_INT_Initialize
                0x9d004cb0       0x18 build/boostv1/production/_ext/122796885/sys_int_pic32.o
                0x9d004cb0                SYS_INT_Initialize

.text           0x9d004cc8       0x18
 .text          0x9d004cc8       0x18 c:/program files (x86)/microchip/xc32/v1.40/bin/bin/../../lib/gcc/pic32mx/4.8.3/../../../../pic32mx/lib\libpic32.a(default-nmi-handler.o)
                0x9d004cc8                _nmi_handler

.text.SYS_DEVCON_Initialize
                0x9d004ce0       0x14
 .text.SYS_DEVCON_Initialize
                0x9d004ce0       0x14 build/boostv1/production/_ext/1271179505/sys_devcon.o
                0x9d004ce0                SYS_DEVCON_Initialize

.rodata         0x9d004cf4       0x10
 .rodata        0x9d004cf4       0x10 build/boostv1/production/_ext/2140773153/drv_i2c_static.o

.text.DRV_GFX_LCC_SetColor
                0x9d004d04       0x10
 .text.DRV_GFX_LCC_SetColor
                0x9d004d04       0x10 build/boostv1/production/_ext/1390999610/drv_gfx_lcc_int_pe.o
                0x9d004d04                DRV_GFX_LCC_SetColor

.text.SYS_CLK_SystemFrequencyGet
                0x9d0000f4        0xc
 .text.SYS_CLK_SystemFrequencyGet
                0x9d0000f4        0xc build/boostv1/production/_ext/1526535504/sys_clk_static.o
                0x9d0000f4                SYS_CLK_SystemFrequencyGet

.text.DRV_GFX_LCC_MaxXGet
                0x9d004d14        0xc
 .text.DRV_GFX_LCC_MaxXGet
                0x9d004d14        0xc build/boostv1/production/_ext/1390999610/drv_gfx_lcc_int_pe.o
                0x9d004d14                DRV_GFX_LCC_MaxXGet

.text.DRV_GFX_LCC_MaxYGet
                0x9d004d20        0xc
 .text.DRV_GFX_LCC_MaxYGet
                0x9d004d20        0xc build/boostv1/production/_ext/1390999610/drv_gfx_lcc_int_pe.o
                0x9d004d20                DRV_GFX_LCC_MaxYGet

.text.APP_Initialize
                0x9d0001f8        0x8
 .text.APP_Initialize
                0x9d0001f8        0x8 build/boostv1/production/_ext/1360937237/app.o
                0x9d0001f8                APP_Initialize

.text.APP_Tasks
                0x9d004d2c        0x8
 .text.APP_Tasks
                0x9d004d2c        0x8 build/boostv1/production/_ext/1360937237/app.o
                0x9d004d2c                APP_Tasks

.text.DRV_TMR_Tasks
                0x9d004d34        0x8
 .text.DRV_TMR_Tasks
                0x9d004d34        0x8 build/boostv1/production/_ext/185269848/drv_tmr.o
                0x9d004d34                DRV_TMR_Tasks

.text.SYS_DEVCON_Tasks
                0x9d004d3c        0x8
 .text.SYS_DEVCON_Tasks
                0x9d004d3c        0x8 build/boostv1/production/_ext/1271179505/sys_devcon.o
                0x9d004d3c                SYS_DEVCON_Tasks

.rodata         0x9d004d44        0x8
 .rodata        0x9d004d44        0x8 build/boostv1/production/_ext/1264926591/sys_tmr.o

.text._on_reset
                0x9d004d4c        0x8
 .text._on_reset
                0x9d004d4c        0x8 c:/program files (x86)/microchip/xc32/v1.40/bin/bin/../../lib/gcc/pic32mx/4.8.3/../../../../pic32mx/lib\libpic32.a(default-on-reset.o)
                0x9d004d4c                _on_reset

.text._on_bootstrap
                0x9d004d54        0x8
 .text._on_bootstrap
                0x9d004d54        0x8 c:/program files (x86)/microchip/xc32/v1.40/bin/bin/../../lib/gcc/pic32mx/4.8.3/../../../../pic32mx/lib\libpic32.a(default-on-bootstrap.o)
                0x9d004d54                _on_bootstrap
